ARM GAS  C:\Users\Jorden\AppData\Local\Temp\cccASqfJ.s 			page 1


   1              		.syntax unified
   2              		.cpu cortex-m3
   3              		.fpu softvfp
   4              		.eabi_attribute 20, 1
   5              		.eabi_attribute 21, 1
   6              		.eabi_attribute 23, 3
   7              		.eabi_attribute 24, 1
   8              		.eabi_attribute 25, 1
   9              		.eabi_attribute 26, 1
  10              		.eabi_attribute 30, 1
  11              		.eabi_attribute 34, 1
  12              		.eabi_attribute 18, 4
  13              		.thumb
  14              		.file	"cyfitter_cfg.c"
  15              		.text
  16              	.Ltext0:
  17              		.cfi_sections	.debug_frame
  18              		.section	.text.CyClockStartupError,"ax",%progbits
  19              		.align	2
  20              		.thumb
  21              		.thumb_func
  22              		.type	CyClockStartupError, %function
  23              	CyClockStartupError:
  24              	.LFB3:
  25              		.file 1 ".\\Generated_Source\\PSoC5\\cyfitter_cfg.c"
   1:.\Generated_Source\PSoC5/cyfitter_cfg.c **** /*******************************************************************************
   2:.\Generated_Source\PSoC5/cyfitter_cfg.c **** * FILENAME: cyfitter_cfg.c
   3:.\Generated_Source\PSoC5/cyfitter_cfg.c **** * 
   4:.\Generated_Source\PSoC5/cyfitter_cfg.c **** * PSoC Creator  3.2
   5:.\Generated_Source\PSoC5/cyfitter_cfg.c **** *
   6:.\Generated_Source\PSoC5/cyfitter_cfg.c **** * DESCRIPTION:
   7:.\Generated_Source\PSoC5/cyfitter_cfg.c **** * This file contains device initialization code.
   8:.\Generated_Source\PSoC5/cyfitter_cfg.c **** * Except for the user defined sections in CyClockStartupError(), this file should not be modified.
   9:.\Generated_Source\PSoC5/cyfitter_cfg.c **** * This file is automatically generated by PSoC Creator.
  10:.\Generated_Source\PSoC5/cyfitter_cfg.c **** *
  11:.\Generated_Source\PSoC5/cyfitter_cfg.c **** ********************************************************************************
  12:.\Generated_Source\PSoC5/cyfitter_cfg.c **** * Copyright (c) 2007-2015 Cypress Semiconductor.  All rights reserved.
  13:.\Generated_Source\PSoC5/cyfitter_cfg.c **** * You may use this file only in accordance with the license, terms, conditions, 
  14:.\Generated_Source\PSoC5/cyfitter_cfg.c **** * disclaimers, and limitations in the end user license agreement accompanying 
  15:.\Generated_Source\PSoC5/cyfitter_cfg.c **** * the software package with which this file was provided.
  16:.\Generated_Source\PSoC5/cyfitter_cfg.c **** ********************************************************************************/
  17:.\Generated_Source\PSoC5/cyfitter_cfg.c **** 
  18:.\Generated_Source\PSoC5/cyfitter_cfg.c **** #include <string.h>
  19:.\Generated_Source\PSoC5/cyfitter_cfg.c **** #include "cytypes.h"
  20:.\Generated_Source\PSoC5/cyfitter_cfg.c **** #include "cydevice_trm.h"
  21:.\Generated_Source\PSoC5/cyfitter_cfg.c **** #include "cyfitter.h"
  22:.\Generated_Source\PSoC5/cyfitter_cfg.c **** #include "CyLib.h"
  23:.\Generated_Source\PSoC5/cyfitter_cfg.c **** #include "cyfitter_cfg.h"
  24:.\Generated_Source\PSoC5/cyfitter_cfg.c **** 
  25:.\Generated_Source\PSoC5/cyfitter_cfg.c **** #define CY_NEED_CYCLOCKSTARTUPERROR 1
  26:.\Generated_Source\PSoC5/cyfitter_cfg.c **** 
  27:.\Generated_Source\PSoC5/cyfitter_cfg.c **** 
  28:.\Generated_Source\PSoC5/cyfitter_cfg.c **** #if defined(__GNUC__) || defined(__ARMCC_VERSION)
  29:.\Generated_Source\PSoC5/cyfitter_cfg.c ****     #define CYPACKED 
  30:.\Generated_Source\PSoC5/cyfitter_cfg.c ****     #define CYPACKED_ATTR __attribute__ ((packed))
  31:.\Generated_Source\PSoC5/cyfitter_cfg.c ****     #define CYALIGNED __attribute__ ((aligned))
  32:.\Generated_Source\PSoC5/cyfitter_cfg.c ****     #define CY_CFG_UNUSED __attribute__ ((unused))
ARM GAS  C:\Users\Jorden\AppData\Local\Temp\cccASqfJ.s 			page 2


  33:.\Generated_Source\PSoC5/cyfitter_cfg.c ****     #define CY_CFG_SECTION __attribute__ ((section(".psocinit")))
  34:.\Generated_Source\PSoC5/cyfitter_cfg.c ****     
  35:.\Generated_Source\PSoC5/cyfitter_cfg.c ****     #if defined(__ARMCC_VERSION)
  36:.\Generated_Source\PSoC5/cyfitter_cfg.c ****         #define CY_CFG_MEMORY_BARRIER() __memory_changed()
  37:.\Generated_Source\PSoC5/cyfitter_cfg.c ****     #else
  38:.\Generated_Source\PSoC5/cyfitter_cfg.c ****         #define CY_CFG_MEMORY_BARRIER() __sync_synchronize()
  39:.\Generated_Source\PSoC5/cyfitter_cfg.c ****     #endif
  40:.\Generated_Source\PSoC5/cyfitter_cfg.c ****     
  41:.\Generated_Source\PSoC5/cyfitter_cfg.c **** #elif defined(__ICCARM__)
  42:.\Generated_Source\PSoC5/cyfitter_cfg.c ****     #include <intrinsics.h>
  43:.\Generated_Source\PSoC5/cyfitter_cfg.c **** 
  44:.\Generated_Source\PSoC5/cyfitter_cfg.c ****     #define CYPACKED __packed
  45:.\Generated_Source\PSoC5/cyfitter_cfg.c ****     #define CYPACKED_ATTR 
  46:.\Generated_Source\PSoC5/cyfitter_cfg.c ****     #define CYALIGNED _Pragma("data_alignment=4")
  47:.\Generated_Source\PSoC5/cyfitter_cfg.c ****     #define CY_CFG_UNUSED _Pragma("diag_suppress=Pe177")
  48:.\Generated_Source\PSoC5/cyfitter_cfg.c ****     #define CY_CFG_SECTION _Pragma("location=\".psocinit\"")
  49:.\Generated_Source\PSoC5/cyfitter_cfg.c ****     
  50:.\Generated_Source\PSoC5/cyfitter_cfg.c ****     #define CY_CFG_MEMORY_BARRIER() __DMB()
  51:.\Generated_Source\PSoC5/cyfitter_cfg.c ****     
  52:.\Generated_Source\PSoC5/cyfitter_cfg.c **** #else
  53:.\Generated_Source\PSoC5/cyfitter_cfg.c ****     #error Unsupported toolchain
  54:.\Generated_Source\PSoC5/cyfitter_cfg.c **** #endif
  55:.\Generated_Source\PSoC5/cyfitter_cfg.c **** 
  56:.\Generated_Source\PSoC5/cyfitter_cfg.c **** 
  57:.\Generated_Source\PSoC5/cyfitter_cfg.c **** CY_CFG_UNUSED
  58:.\Generated_Source\PSoC5/cyfitter_cfg.c **** static void CYMEMZERO(void *s, size_t n);
  59:.\Generated_Source\PSoC5/cyfitter_cfg.c **** CY_CFG_UNUSED
  60:.\Generated_Source\PSoC5/cyfitter_cfg.c **** static void CYMEMZERO(void *s, size_t n)
  61:.\Generated_Source\PSoC5/cyfitter_cfg.c **** {
  62:.\Generated_Source\PSoC5/cyfitter_cfg.c **** 	(void)memset(s, 0, n);
  63:.\Generated_Source\PSoC5/cyfitter_cfg.c **** }
  64:.\Generated_Source\PSoC5/cyfitter_cfg.c **** CY_CFG_UNUSED
  65:.\Generated_Source\PSoC5/cyfitter_cfg.c **** static void CYCONFIGCPY(void *dest, const void *src, size_t n);
  66:.\Generated_Source\PSoC5/cyfitter_cfg.c **** CY_CFG_UNUSED
  67:.\Generated_Source\PSoC5/cyfitter_cfg.c **** static void CYCONFIGCPY(void *dest, const void *src, size_t n)
  68:.\Generated_Source\PSoC5/cyfitter_cfg.c **** {
  69:.\Generated_Source\PSoC5/cyfitter_cfg.c **** 	(void)memcpy(dest, src, n);
  70:.\Generated_Source\PSoC5/cyfitter_cfg.c **** }
  71:.\Generated_Source\PSoC5/cyfitter_cfg.c **** CY_CFG_UNUSED
  72:.\Generated_Source\PSoC5/cyfitter_cfg.c **** static void CYCONFIGCPYCODE(void *dest, const void *src, size_t n);
  73:.\Generated_Source\PSoC5/cyfitter_cfg.c **** CY_CFG_UNUSED
  74:.\Generated_Source\PSoC5/cyfitter_cfg.c **** static void CYCONFIGCPYCODE(void *dest, const void *src, size_t n)
  75:.\Generated_Source\PSoC5/cyfitter_cfg.c **** {
  76:.\Generated_Source\PSoC5/cyfitter_cfg.c **** 	(void)memcpy(dest, src, n);
  77:.\Generated_Source\PSoC5/cyfitter_cfg.c **** }
  78:.\Generated_Source\PSoC5/cyfitter_cfg.c **** 
  79:.\Generated_Source\PSoC5/cyfitter_cfg.c **** 
  80:.\Generated_Source\PSoC5/cyfitter_cfg.c **** 
  81:.\Generated_Source\PSoC5/cyfitter_cfg.c **** /* Clock startup error codes                                                   */
  82:.\Generated_Source\PSoC5/cyfitter_cfg.c **** #define CYCLOCKSTART_NO_ERROR    0u
  83:.\Generated_Source\PSoC5/cyfitter_cfg.c **** #define CYCLOCKSTART_XTAL_ERROR  1u
  84:.\Generated_Source\PSoC5/cyfitter_cfg.c **** #define CYCLOCKSTART_32KHZ_ERROR 2u
  85:.\Generated_Source\PSoC5/cyfitter_cfg.c **** #define CYCLOCKSTART_PLL_ERROR   3u
  86:.\Generated_Source\PSoC5/cyfitter_cfg.c **** 
  87:.\Generated_Source\PSoC5/cyfitter_cfg.c **** #ifdef CY_NEED_CYCLOCKSTARTUPERROR
  88:.\Generated_Source\PSoC5/cyfitter_cfg.c **** /*******************************************************************************
  89:.\Generated_Source\PSoC5/cyfitter_cfg.c **** * Function Name: CyClockStartupError
ARM GAS  C:\Users\Jorden\AppData\Local\Temp\cccASqfJ.s 			page 3


  90:.\Generated_Source\PSoC5/cyfitter_cfg.c **** ********************************************************************************
  91:.\Generated_Source\PSoC5/cyfitter_cfg.c **** * Summary:
  92:.\Generated_Source\PSoC5/cyfitter_cfg.c **** *  If an error is encountered during clock configuration (crystal startup error,
  93:.\Generated_Source\PSoC5/cyfitter_cfg.c **** *  PLL lock error, etc.), the system will end up here.  Unless reimplemented by
  94:.\Generated_Source\PSoC5/cyfitter_cfg.c **** *  the customer, this function will stop in an infinite loop.
  95:.\Generated_Source\PSoC5/cyfitter_cfg.c **** *
  96:.\Generated_Source\PSoC5/cyfitter_cfg.c **** * Parameters:
  97:.\Generated_Source\PSoC5/cyfitter_cfg.c **** *   void
  98:.\Generated_Source\PSoC5/cyfitter_cfg.c **** *
  99:.\Generated_Source\PSoC5/cyfitter_cfg.c **** * Return:
 100:.\Generated_Source\PSoC5/cyfitter_cfg.c **** *   void
 101:.\Generated_Source\PSoC5/cyfitter_cfg.c **** *
 102:.\Generated_Source\PSoC5/cyfitter_cfg.c **** *******************************************************************************/
 103:.\Generated_Source\PSoC5/cyfitter_cfg.c **** CY_CFG_UNUSED
 104:.\Generated_Source\PSoC5/cyfitter_cfg.c **** static void CyClockStartupError(uint8 errorCode);
 105:.\Generated_Source\PSoC5/cyfitter_cfg.c **** CY_CFG_UNUSED
 106:.\Generated_Source\PSoC5/cyfitter_cfg.c **** static void CyClockStartupError(uint8 errorCode)
 107:.\Generated_Source\PSoC5/cyfitter_cfg.c **** {
  26              		.loc 1 107 0
  27              		.cfi_startproc
  28              		@ Volatile: function does not return.
  29              		@ args = 0, pretend = 0, frame = 0
  30              		@ frame_needed = 0, uses_anonymous_args = 0
  31              		@ link register save eliminated.
  32              	.LVL0:
  33              	.L2:
  34 0000 FEE7     		b	.L2
  35              		.cfi_endproc
  36              	.LFE3:
  37              		.size	CyClockStartupError, .-CyClockStartupError
  38 0002 00BF     		.section	.text.cfg_write_bytes32,"ax",%progbits
  39              		.align	2
  40              		.thumb
  41              		.thumb_func
  42              		.type	cfg_write_bytes32, %function
  43              	cfg_write_bytes32:
  44              	.LFB4:
 108:.\Generated_Source\PSoC5/cyfitter_cfg.c ****     /* To remove the compiler warning if errorCode not used.                */
 109:.\Generated_Source\PSoC5/cyfitter_cfg.c ****     errorCode = errorCode;
 110:.\Generated_Source\PSoC5/cyfitter_cfg.c **** 
 111:.\Generated_Source\PSoC5/cyfitter_cfg.c ****     /* `#START CyClockStartupError` */
 112:.\Generated_Source\PSoC5/cyfitter_cfg.c **** 
 113:.\Generated_Source\PSoC5/cyfitter_cfg.c ****     /* If we have a clock startup error (bad MHz crystal, PLL lock, etc.),  */
 114:.\Generated_Source\PSoC5/cyfitter_cfg.c ****     /* we will end up here to allow the customer to implement something to  */
 115:.\Generated_Source\PSoC5/cyfitter_cfg.c ****     /* deal with the clock condition.                                       */
 116:.\Generated_Source\PSoC5/cyfitter_cfg.c **** 
 117:.\Generated_Source\PSoC5/cyfitter_cfg.c ****     /* `#END` */
 118:.\Generated_Source\PSoC5/cyfitter_cfg.c **** 
 119:.\Generated_Source\PSoC5/cyfitter_cfg.c ****     /* If nothing else, stop here since the clocks have not started         */
 120:.\Generated_Source\PSoC5/cyfitter_cfg.c ****     /* correctly.                                                           */
 121:.\Generated_Source\PSoC5/cyfitter_cfg.c ****     while(1) {}
 122:.\Generated_Source\PSoC5/cyfitter_cfg.c **** }
 123:.\Generated_Source\PSoC5/cyfitter_cfg.c **** #endif
 124:.\Generated_Source\PSoC5/cyfitter_cfg.c **** 
 125:.\Generated_Source\PSoC5/cyfitter_cfg.c **** #define CY_CFG_BASE_ADDR_COUNT 36u
 126:.\Generated_Source\PSoC5/cyfitter_cfg.c **** CYPACKED typedef struct
 127:.\Generated_Source\PSoC5/cyfitter_cfg.c **** {
ARM GAS  C:\Users\Jorden\AppData\Local\Temp\cccASqfJ.s 			page 4


 128:.\Generated_Source\PSoC5/cyfitter_cfg.c **** 	uint8 offset;
 129:.\Generated_Source\PSoC5/cyfitter_cfg.c **** 	uint8 value;
 130:.\Generated_Source\PSoC5/cyfitter_cfg.c **** } CYPACKED_ATTR cy_cfg_addrvalue_t;
 131:.\Generated_Source\PSoC5/cyfitter_cfg.c **** 
 132:.\Generated_Source\PSoC5/cyfitter_cfg.c **** #define cy_cfg_addr_table ((const uint32 CYFAR *)0x48000000u)
 133:.\Generated_Source\PSoC5/cyfitter_cfg.c **** #define cy_cfg_data_table ((const cy_cfg_addrvalue_t CYFAR *)0x48000090u)
 134:.\Generated_Source\PSoC5/cyfitter_cfg.c **** 
 135:.\Generated_Source\PSoC5/cyfitter_cfg.c **** /* UDB_1_5_0_CONFIG Address: CYDEV_UCFG_B0_P0_U0_BASE Size (bytes): 128 */
 136:.\Generated_Source\PSoC5/cyfitter_cfg.c **** #define BS_UDB_1_5_0_CONFIG_VAL ((const uint8 CYFAR *)0x48000978u)
 137:.\Generated_Source\PSoC5/cyfitter_cfg.c **** 
 138:.\Generated_Source\PSoC5/cyfitter_cfg.c **** /* UDB_0_4_0_CONFIG Address: CYDEV_UCFG_B0_P6_U1_BASE Size (bytes): 128 */
 139:.\Generated_Source\PSoC5/cyfitter_cfg.c **** #define BS_UDB_0_4_0_CONFIG_VAL ((const uint8 CYFAR *)0x480009F8u)
 140:.\Generated_Source\PSoC5/cyfitter_cfg.c **** 
 141:.\Generated_Source\PSoC5/cyfitter_cfg.c **** /* IOPINS0_0 Address: CYREG_PRT0_DM0 Size (bytes): 8 */
 142:.\Generated_Source\PSoC5/cyfitter_cfg.c **** #define BS_IOPINS0_0_VAL ((const uint8 CYFAR *)0x48000A78u)
 143:.\Generated_Source\PSoC5/cyfitter_cfg.c **** 
 144:.\Generated_Source\PSoC5/cyfitter_cfg.c **** /* IOPINS0_7 Address: CYREG_PRT12_DM0 Size (bytes): 8 */
 145:.\Generated_Source\PSoC5/cyfitter_cfg.c **** #define BS_IOPINS0_7_VAL ((const uint8 CYFAR *)0x48000A80u)
 146:.\Generated_Source\PSoC5/cyfitter_cfg.c **** 
 147:.\Generated_Source\PSoC5/cyfitter_cfg.c **** /* IOPINS0_2 Address: CYREG_PRT2_DR Size (bytes): 10 */
 148:.\Generated_Source\PSoC5/cyfitter_cfg.c **** #define BS_IOPINS0_2_VAL ((const uint8 CYFAR *)0x48000A88u)
 149:.\Generated_Source\PSoC5/cyfitter_cfg.c **** 
 150:.\Generated_Source\PSoC5/cyfitter_cfg.c **** /* IOPINS0_4 Address: CYREG_PRT4_DM0 Size (bytes): 8 */
 151:.\Generated_Source\PSoC5/cyfitter_cfg.c **** #define BS_IOPINS0_4_VAL ((const uint8 CYFAR *)0x48000A94u)
 152:.\Generated_Source\PSoC5/cyfitter_cfg.c **** 
 153:.\Generated_Source\PSoC5/cyfitter_cfg.c **** /* IOPINS0_6 Address: CYREG_PRT6_DR Size (bytes): 10 */
 154:.\Generated_Source\PSoC5/cyfitter_cfg.c **** #define BS_IOPINS0_6_VAL ((const uint8 CYFAR *)0x48000A9Cu)
 155:.\Generated_Source\PSoC5/cyfitter_cfg.c **** 
 156:.\Generated_Source\PSoC5/cyfitter_cfg.c **** 
 157:.\Generated_Source\PSoC5/cyfitter_cfg.c **** /*******************************************************************************
 158:.\Generated_Source\PSoC5/cyfitter_cfg.c **** * Function Name: cfg_write_bytes32
 159:.\Generated_Source\PSoC5/cyfitter_cfg.c **** ********************************************************************************
 160:.\Generated_Source\PSoC5/cyfitter_cfg.c **** * Summary:
 161:.\Generated_Source\PSoC5/cyfitter_cfg.c **** *  This function is used for setting up the chip configuration areas that
 162:.\Generated_Source\PSoC5/cyfitter_cfg.c **** *  contain relatively sparse data.
 163:.\Generated_Source\PSoC5/cyfitter_cfg.c **** *
 164:.\Generated_Source\PSoC5/cyfitter_cfg.c **** * Parameters:
 165:.\Generated_Source\PSoC5/cyfitter_cfg.c **** *   void
 166:.\Generated_Source\PSoC5/cyfitter_cfg.c **** *
 167:.\Generated_Source\PSoC5/cyfitter_cfg.c **** * Return:
 168:.\Generated_Source\PSoC5/cyfitter_cfg.c **** *   void
 169:.\Generated_Source\PSoC5/cyfitter_cfg.c **** *
 170:.\Generated_Source\PSoC5/cyfitter_cfg.c **** *******************************************************************************/
 171:.\Generated_Source\PSoC5/cyfitter_cfg.c **** static void cfg_write_bytes32(const uint32 addr_table[], const cy_cfg_addrvalue_t data_table[]);
 172:.\Generated_Source\PSoC5/cyfitter_cfg.c **** static void cfg_write_bytes32(const uint32 addr_table[], const cy_cfg_addrvalue_t data_table[])
 173:.\Generated_Source\PSoC5/cyfitter_cfg.c **** {
  45              		.loc 1 173 0
  46              		.cfi_startproc
  47              		@ args = 0, pretend = 0, frame = 0
  48              		@ frame_needed = 0, uses_anonymous_args = 0
  49              		@ link register save eliminated.
  50              	.LVL1:
  51              		.loc 1 173 0
  52 0000 F0B4     		push	{r4, r5, r6, r7}
  53              		.cfi_def_cfa_offset 16
  54              		.cfi_offset 4, -16
  55              		.cfi_offset 5, -12
ARM GAS  C:\Users\Jorden\AppData\Local\Temp\cccASqfJ.s 			page 5


  56              		.cfi_offset 6, -8
  57              		.cfi_offset 7, -4
  58              	.LVL2:
 174:.\Generated_Source\PSoC5/cyfitter_cfg.c **** 	/* For 32-bit little-endian architectures */
 175:.\Generated_Source\PSoC5/cyfitter_cfg.c **** 	uint32 i, j = 0u;
  59              		.loc 1 175 0
  60 0002 0023     		movs	r3, #0
 176:.\Generated_Source\PSoC5/cyfitter_cfg.c **** 	for (i = 0u; i < CY_CFG_BASE_ADDR_COUNT; i++)
  61              		.loc 1 176 0
  62 0004 1F46     		mov	r7, r3
  63 0006 11E0     		b	.L4
  64              	.LVL3:
  65              	.L7:
  66              	.LBB2:
 177:.\Generated_Source\PSoC5/cyfitter_cfg.c **** 	{
 178:.\Generated_Source\PSoC5/cyfitter_cfg.c **** 		uint32 baseAddr = addr_table[i];
  67              		.loc 1 178 0
  68 0008 50F82760 		ldr	r6, [r0, r7, lsl #2]
  69              	.LVL4:
 179:.\Generated_Source\PSoC5/cyfitter_cfg.c **** 		uint8 count = (uint8)baseAddr;
  70              		.loc 1 179 0
  71 000c F2B2     		uxtb	r2, r6
  72              	.LVL5:
 180:.\Generated_Source\PSoC5/cyfitter_cfg.c **** 		baseAddr &= 0xFFFFFF00u;
  73              		.loc 1 180 0
  74 000e 26F0FF06 		bic	r6, r6, #255
  75              	.LVL6:
 181:.\Generated_Source\PSoC5/cyfitter_cfg.c **** 		while (count != 0u)
  76              		.loc 1 181 0
  77 0012 08E0     		b	.L5
  78              	.L6:
 182:.\Generated_Source\PSoC5/cyfitter_cfg.c **** 		{
 183:.\Generated_Source\PSoC5/cyfitter_cfg.c **** 			CY_SET_XTND_REG8((void CYFAR *)(baseAddr + data_table[j].offset), data_table[j].value);
  79              		.loc 1 183 0
  80 0014 01EB4305 		add	r5, r1, r3, lsl #1
  81 0018 11F81340 		ldrb	r4, [r1, r3, lsl #1]	@ zero_extendqisi2
  82 001c 6D78     		ldrb	r5, [r5, #1]	@ zero_extendqisi2
  83 001e A555     		strb	r5, [r4, r6]
 184:.\Generated_Source\PSoC5/cyfitter_cfg.c **** 			j++;
  84              		.loc 1 184 0
  85 0020 0133     		adds	r3, r3, #1
  86              	.LVL7:
 185:.\Generated_Source\PSoC5/cyfitter_cfg.c **** 			count--;
  87              		.loc 1 185 0
  88 0022 013A     		subs	r2, r2, #1
  89              	.LVL8:
  90 0024 D2B2     		uxtb	r2, r2
  91              	.LVL9:
  92              	.L5:
 181:.\Generated_Source\PSoC5/cyfitter_cfg.c **** 		while (count != 0u)
  93              		.loc 1 181 0 discriminator 1
  94 0026 002A     		cmp	r2, #0
  95 0028 F4D1     		bne	.L6
  96              	.LBE2:
 176:.\Generated_Source\PSoC5/cyfitter_cfg.c **** 	for (i = 0u; i < CY_CFG_BASE_ADDR_COUNT; i++)
  97              		.loc 1 176 0
  98 002a 0137     		adds	r7, r7, #1
ARM GAS  C:\Users\Jorden\AppData\Local\Temp\cccASqfJ.s 			page 6


  99              	.LVL10:
 100              	.L4:
 176:.\Generated_Source\PSoC5/cyfitter_cfg.c **** 	for (i = 0u; i < CY_CFG_BASE_ADDR_COUNT; i++)
 101              		.loc 1 176 0 is_stmt 0 discriminator 1
 102 002c 232F     		cmp	r7, #35
 103 002e EBD9     		bls	.L7
 186:.\Generated_Source\PSoC5/cyfitter_cfg.c **** 		}
 187:.\Generated_Source\PSoC5/cyfitter_cfg.c **** 	}
 188:.\Generated_Source\PSoC5/cyfitter_cfg.c **** }
 104              		.loc 1 188 0 is_stmt 1
 105 0030 F0BC     		pop	{r4, r5, r6, r7}
 106              	.LVL11:
 107 0032 7047     		bx	lr
 108              		.cfi_endproc
 109              	.LFE4:
 110              		.size	cfg_write_bytes32, .-cfg_write_bytes32
 111              		.section	.text.AnalogSetDefault,"ax",%progbits
 112              		.align	2
 113              		.thumb
 114              		.thumb_func
 115              		.type	AnalogSetDefault, %function
 116              	AnalogSetDefault:
 117              	.LFB6:
 189:.\Generated_Source\PSoC5/cyfitter_cfg.c **** 
 190:.\Generated_Source\PSoC5/cyfitter_cfg.c **** /*******************************************************************************
 191:.\Generated_Source\PSoC5/cyfitter_cfg.c **** * Function Name: ClockSetup
 192:.\Generated_Source\PSoC5/cyfitter_cfg.c **** ********************************************************************************
 193:.\Generated_Source\PSoC5/cyfitter_cfg.c **** *
 194:.\Generated_Source\PSoC5/cyfitter_cfg.c **** * Summary:
 195:.\Generated_Source\PSoC5/cyfitter_cfg.c **** *  Performs the initialization of all of the clocks in the device based on the
 196:.\Generated_Source\PSoC5/cyfitter_cfg.c **** *  settings in the Clock tab of the DWR.  This includes enabling the requested
 197:.\Generated_Source\PSoC5/cyfitter_cfg.c **** *  clocks and setting the necessary dividers to produce the desired frequency. 
 198:.\Generated_Source\PSoC5/cyfitter_cfg.c **** *
 199:.\Generated_Source\PSoC5/cyfitter_cfg.c **** * Parameters:
 200:.\Generated_Source\PSoC5/cyfitter_cfg.c **** *  void
 201:.\Generated_Source\PSoC5/cyfitter_cfg.c **** *
 202:.\Generated_Source\PSoC5/cyfitter_cfg.c **** * Return:
 203:.\Generated_Source\PSoC5/cyfitter_cfg.c **** *  void
 204:.\Generated_Source\PSoC5/cyfitter_cfg.c **** *
 205:.\Generated_Source\PSoC5/cyfitter_cfg.c **** *******************************************************************************/
 206:.\Generated_Source\PSoC5/cyfitter_cfg.c **** static void ClockSetup(void);
 207:.\Generated_Source\PSoC5/cyfitter_cfg.c **** static void ClockSetup(void)
 208:.\Generated_Source\PSoC5/cyfitter_cfg.c **** {
 209:.\Generated_Source\PSoC5/cyfitter_cfg.c **** 	uint32 timeout;
 210:.\Generated_Source\PSoC5/cyfitter_cfg.c **** 	uint8 pllLock;
 211:.\Generated_Source\PSoC5/cyfitter_cfg.c **** 
 212:.\Generated_Source\PSoC5/cyfitter_cfg.c **** 
 213:.\Generated_Source\PSoC5/cyfitter_cfg.c **** 	/* Configure Digital Clocks based on settings from Clock DWR */
 214:.\Generated_Source\PSoC5/cyfitter_cfg.c **** 	CY_SET_XTND_REG16((void CYFAR *)(CYREG_CLKDIST_DCFG0_CFG0), 0x0001u);
 215:.\Generated_Source\PSoC5/cyfitter_cfg.c **** 	CY_SET_XTND_REG8((void CYFAR *)(CYREG_CLKDIST_DCFG0_CFG0 + 0x2u), 0x18u);
 216:.\Generated_Source\PSoC5/cyfitter_cfg.c **** 	CY_SET_XTND_REG16((void CYFAR *)(CYREG_CLKDIST_DCFG1_CFG0), 0x0000u);
 217:.\Generated_Source\PSoC5/cyfitter_cfg.c **** 	CY_SET_XTND_REG8((void CYFAR *)(CYREG_CLKDIST_DCFG1_CFG0 + 0x2u), 0x19u);
 218:.\Generated_Source\PSoC5/cyfitter_cfg.c **** 	CY_SET_XTND_REG16((void CYFAR *)(CYREG_CLKDIST_DCFG2_CFG0), 0x0138u);
 219:.\Generated_Source\PSoC5/cyfitter_cfg.c **** 	CY_SET_XTND_REG8((void CYFAR *)(CYREG_CLKDIST_DCFG2_CFG0 + 0x2u), 0x18u);
 220:.\Generated_Source\PSoC5/cyfitter_cfg.c **** 	CY_SET_XTND_REG16((void CYFAR *)(CYREG_CLKDIST_DCFG3_CFG0), 0x0138u);
 221:.\Generated_Source\PSoC5/cyfitter_cfg.c **** 	CY_SET_XTND_REG8((void CYFAR *)(CYREG_CLKDIST_DCFG3_CFG0 + 0x2u), 0x18u);
 222:.\Generated_Source\PSoC5/cyfitter_cfg.c **** 
ARM GAS  C:\Users\Jorden\AppData\Local\Temp\cccASqfJ.s 			page 7


 223:.\Generated_Source\PSoC5/cyfitter_cfg.c **** 	/* Configure ILO based on settings from Clock DWR */
 224:.\Generated_Source\PSoC5/cyfitter_cfg.c **** 	CY_SET_XTND_REG8((void CYFAR *)(CYREG_SLOWCLK_ILO_CR0), 0x02u);
 225:.\Generated_Source\PSoC5/cyfitter_cfg.c **** 	CY_SET_XTND_REG8((void CYFAR *)(CYREG_CLKDIST_CR), 0x08u);
 226:.\Generated_Source\PSoC5/cyfitter_cfg.c **** 
 227:.\Generated_Source\PSoC5/cyfitter_cfg.c **** 	/* Configure IMO based on settings from Clock DWR */
 228:.\Generated_Source\PSoC5/cyfitter_cfg.c **** 	CY_SET_XTND_REG8((void CYFAR *)(CYREG_FASTCLK_IMO_CR), 0x03u);
 229:.\Generated_Source\PSoC5/cyfitter_cfg.c **** 	CY_SET_XTND_REG8((void CYFAR *)(CYREG_IMO_TR1), (CY_GET_XTND_REG8((void CYFAR *)CYREG_FLSHID_CUST_
 230:.\Generated_Source\PSoC5/cyfitter_cfg.c **** 
 231:.\Generated_Source\PSoC5/cyfitter_cfg.c **** 	/* Configure PLL based on settings from Clock DWR */
 232:.\Generated_Source\PSoC5/cyfitter_cfg.c **** 	CY_SET_XTND_REG16((void CYFAR *)(CYREG_FASTCLK_PLL_P), 0x0008u);
 233:.\Generated_Source\PSoC5/cyfitter_cfg.c **** 	CY_SET_XTND_REG16((void CYFAR *)(CYREG_FASTCLK_PLL_CFG0), 0x1251u);
 234:.\Generated_Source\PSoC5/cyfitter_cfg.c **** 	/* Wait up to 250us for the PLL to lock */
 235:.\Generated_Source\PSoC5/cyfitter_cfg.c **** 	pllLock = 0u;
 236:.\Generated_Source\PSoC5/cyfitter_cfg.c **** 	for (timeout = 250u / 10u; (timeout > 0u) && (pllLock != 0x03u); timeout--)
 237:.\Generated_Source\PSoC5/cyfitter_cfg.c **** 	{ 
 238:.\Generated_Source\PSoC5/cyfitter_cfg.c **** 		pllLock = 0x03u & ((uint8)((uint8)pllLock << 1) | ((CY_GET_XTND_REG8((void CYFAR *)CYREG_FASTCLK_
 239:.\Generated_Source\PSoC5/cyfitter_cfg.c **** 		CyDelayCycles(10u * 48u); /* Delay 10us based on 48MHz clock */
 240:.\Generated_Source\PSoC5/cyfitter_cfg.c **** 	}
 241:.\Generated_Source\PSoC5/cyfitter_cfg.c **** 	/* If we ran out of time the PLL didn't lock so go to the error function */
 242:.\Generated_Source\PSoC5/cyfitter_cfg.c **** 	if (timeout == 0u)
 243:.\Generated_Source\PSoC5/cyfitter_cfg.c **** 	{
 244:.\Generated_Source\PSoC5/cyfitter_cfg.c **** 		CyClockStartupError(CYCLOCKSTART_PLL_ERROR);
 245:.\Generated_Source\PSoC5/cyfitter_cfg.c **** 	}
 246:.\Generated_Source\PSoC5/cyfitter_cfg.c **** 
 247:.\Generated_Source\PSoC5/cyfitter_cfg.c **** 	/* Configure Bus/Master Clock based on settings from Clock DWR */
 248:.\Generated_Source\PSoC5/cyfitter_cfg.c **** 	CY_SET_XTND_REG16((void CYFAR *)(CYREG_CLKDIST_MSTR0), 0x0100u);
 249:.\Generated_Source\PSoC5/cyfitter_cfg.c **** 	CY_SET_XTND_REG8((void CYFAR *)(CYREG_CLKDIST_MSTR0), 0x07u);
 250:.\Generated_Source\PSoC5/cyfitter_cfg.c **** 	CY_SET_XTND_REG8((void CYFAR *)(CYREG_CLKDIST_BCFG0), 0x00u);
 251:.\Generated_Source\PSoC5/cyfitter_cfg.c **** 	CY_SET_XTND_REG8((void CYFAR *)(CYREG_CLKDIST_BCFG2), 0x48u);
 252:.\Generated_Source\PSoC5/cyfitter_cfg.c **** 	CY_SET_XTND_REG8((void CYFAR *)(CYREG_CLKDIST_MSTR0), 0x00u);
 253:.\Generated_Source\PSoC5/cyfitter_cfg.c **** 	CY_SET_XTND_REG8((void CYFAR *)(CYREG_CLKDIST_LD), 0x02u);
 254:.\Generated_Source\PSoC5/cyfitter_cfg.c **** 
 255:.\Generated_Source\PSoC5/cyfitter_cfg.c **** 	CY_SET_XTND_REG8((void CYFAR *)(CYREG_PM_ACT_CFG2), ((CY_GET_XTND_REG8((void CYFAR *)CYREG_PM_ACT_
 256:.\Generated_Source\PSoC5/cyfitter_cfg.c **** }
 257:.\Generated_Source\PSoC5/cyfitter_cfg.c **** 
 258:.\Generated_Source\PSoC5/cyfitter_cfg.c **** 
 259:.\Generated_Source\PSoC5/cyfitter_cfg.c **** /* Analog API Functions */
 260:.\Generated_Source\PSoC5/cyfitter_cfg.c **** 
 261:.\Generated_Source\PSoC5/cyfitter_cfg.c **** 
 262:.\Generated_Source\PSoC5/cyfitter_cfg.c **** /*******************************************************************************
 263:.\Generated_Source\PSoC5/cyfitter_cfg.c **** * Function Name: AnalogSetDefault
 264:.\Generated_Source\PSoC5/cyfitter_cfg.c **** ********************************************************************************
 265:.\Generated_Source\PSoC5/cyfitter_cfg.c **** *
 266:.\Generated_Source\PSoC5/cyfitter_cfg.c **** * Summary:
 267:.\Generated_Source\PSoC5/cyfitter_cfg.c **** *  Sets up the analog portions of the chip to default values based on chip
 268:.\Generated_Source\PSoC5/cyfitter_cfg.c **** *  configuration options from the project.
 269:.\Generated_Source\PSoC5/cyfitter_cfg.c **** *
 270:.\Generated_Source\PSoC5/cyfitter_cfg.c **** * Parameters:
 271:.\Generated_Source\PSoC5/cyfitter_cfg.c **** *  void
 272:.\Generated_Source\PSoC5/cyfitter_cfg.c **** *
 273:.\Generated_Source\PSoC5/cyfitter_cfg.c **** * Return:
 274:.\Generated_Source\PSoC5/cyfitter_cfg.c **** *  void
 275:.\Generated_Source\PSoC5/cyfitter_cfg.c **** *
 276:.\Generated_Source\PSoC5/cyfitter_cfg.c **** *******************************************************************************/
 277:.\Generated_Source\PSoC5/cyfitter_cfg.c **** static void AnalogSetDefault(void);
 278:.\Generated_Source\PSoC5/cyfitter_cfg.c **** static void AnalogSetDefault(void)
 279:.\Generated_Source\PSoC5/cyfitter_cfg.c **** {
ARM GAS  C:\Users\Jorden\AppData\Local\Temp\cccASqfJ.s 			page 8


 118              		.loc 1 279 0
 119              		.cfi_startproc
 120              		@ args = 0, pretend = 0, frame = 0
 121              		@ frame_needed = 0, uses_anonymous_args = 0
 122              		@ link register save eliminated.
 280:.\Generated_Source\PSoC5/cyfitter_cfg.c **** 	uint8 bg_xover_inl_trim = CY_GET_XTND_REG8((void CYFAR *)(CYREG_FLSHID_MFG_CFG_BG_XOVER_INL_TRIM +
 123              		.loc 1 280 0
 124 0000 064B     		ldr	r3, .L9
 125 0002 1B78     		ldrb	r3, [r3]	@ zero_extendqisi2
 126 0004 DBB2     		uxtb	r3, r3
 127              	.LVL12:
 281:.\Generated_Source\PSoC5/cyfitter_cfg.c **** 	CY_SET_XTND_REG8((void CYFAR *)(CYREG_BG_DFT0), (bg_xover_inl_trim & 0x07u));
 128              		.loc 1 281 0
 129 0006 03F00701 		and	r1, r3, #7
 130 000a 054A     		ldr	r2, .L9+4
 131 000c 1170     		strb	r1, [r2]
 282:.\Generated_Source\PSoC5/cyfitter_cfg.c **** 	CY_SET_XTND_REG8((void CYFAR *)(CYREG_BG_DFT1), ((bg_xover_inl_trim >> 4) & 0x0Fu));
 132              		.loc 1 282 0
 133 000e 1B09     		lsrs	r3, r3, #4
 134              	.LVL13:
 135 0010 0132     		adds	r2, r2, #1
 136 0012 1370     		strb	r3, [r2]
 283:.\Generated_Source\PSoC5/cyfitter_cfg.c **** 	CY_SET_XTND_REG8((void CYFAR *)CYREG_PUMP_CR0, 0x44u);
 137              		.loc 1 283 0
 138 0014 4422     		movs	r2, #68
 139 0016 034B     		ldr	r3, .L9+8
 140 0018 1A70     		strb	r2, [r3]
 141 001a 7047     		bx	lr
 142              	.L10:
 143              		.align	2
 144              	.L9:
 145 001c CF010049 		.word	1224737231
 146 0020 6E580040 		.word	1073764462
 147 0024 76580040 		.word	1073764470
 148              		.cfi_endproc
 149              	.LFE6:
 150              		.size	AnalogSetDefault, .-AnalogSetDefault
 151              		.section	.text.CYMEMZERO,"ax",%progbits
 152              		.align	2
 153              		.thumb
 154              		.thumb_func
 155              		.type	CYMEMZERO, %function
 156              	CYMEMZERO:
 157              	.LFB0:
  61:.\Generated_Source\PSoC5/cyfitter_cfg.c **** {
 158              		.loc 1 61 0
 159              		.cfi_startproc
 160              		@ args = 0, pretend = 0, frame = 0
 161              		@ frame_needed = 0, uses_anonymous_args = 0
 162              	.LVL14:
 163 0000 08B5     		push	{r3, lr}
 164              		.cfi_def_cfa_offset 8
 165              		.cfi_offset 3, -8
 166              		.cfi_offset 14, -4
 167 0002 0A46     		mov	r2, r1
  62:.\Generated_Source\PSoC5/cyfitter_cfg.c **** 	(void)memset(s, 0, n);
 168              		.loc 1 62 0
ARM GAS  C:\Users\Jorden\AppData\Local\Temp\cccASqfJ.s 			page 9


 169 0004 0021     		movs	r1, #0
 170              	.LVL15:
 171 0006 FFF7FEFF 		bl	memset
 172              	.LVL16:
 173 000a 08BD     		pop	{r3, pc}
 174              		.cfi_endproc
 175              	.LFE0:
 176              		.size	CYMEMZERO, .-CYMEMZERO
 177              		.section	.text.ClockSetup,"ax",%progbits
 178              		.align	2
 179              		.thumb
 180              		.thumb_func
 181              		.type	ClockSetup, %function
 182              	ClockSetup:
 183              	.LFB5:
 208:.\Generated_Source\PSoC5/cyfitter_cfg.c **** {
 184              		.loc 1 208 0
 185              		.cfi_startproc
 186              		@ args = 0, pretend = 0, frame = 0
 187              		@ frame_needed = 0, uses_anonymous_args = 0
 188 0000 F8B5     		push	{r3, r4, r5, r6, r7, lr}
 189              		.cfi_def_cfa_offset 24
 190              		.cfi_offset 3, -24
 191              		.cfi_offset 4, -20
 192              		.cfi_offset 5, -16
 193              		.cfi_offset 6, -12
 194              		.cfi_offset 7, -8
 195              		.cfi_offset 14, -4
 214:.\Generated_Source\PSoC5/cyfitter_cfg.c **** 	CY_SET_XTND_REG16((void CYFAR *)(CYREG_CLKDIST_DCFG0_CFG0), 0x0001u);
 196              		.loc 1 214 0
 197 0002 0122     		movs	r2, #1
 198 0004 2C4B     		ldr	r3, .L17
 199 0006 1A80     		strh	r2, [r3]	@ movhi
 215:.\Generated_Source\PSoC5/cyfitter_cfg.c **** 	CY_SET_XTND_REG8((void CYFAR *)(CYREG_CLKDIST_DCFG0_CFG0 + 0x2u), 0x18u);
 200              		.loc 1 215 0
 201 0008 1823     		movs	r3, #24
 202 000a 2C4A     		ldr	r2, .L17+4
 203 000c 1370     		strb	r3, [r2]
 216:.\Generated_Source\PSoC5/cyfitter_cfg.c **** 	CY_SET_XTND_REG16((void CYFAR *)(CYREG_CLKDIST_DCFG1_CFG0), 0x0000u);
 204              		.loc 1 216 0
 205 000e 0025     		movs	r5, #0
 206 0010 0232     		adds	r2, r2, #2
 207 0012 1580     		strh	r5, [r2]	@ movhi
 217:.\Generated_Source\PSoC5/cyfitter_cfg.c **** 	CY_SET_XTND_REG8((void CYFAR *)(CYREG_CLKDIST_DCFG1_CFG0 + 0x2u), 0x19u);
 208              		.loc 1 217 0
 209 0014 1924     		movs	r4, #25
 210 0016 0232     		adds	r2, r2, #2
 211 0018 1470     		strb	r4, [r2]
 218:.\Generated_Source\PSoC5/cyfitter_cfg.c **** 	CY_SET_XTND_REG16((void CYFAR *)(CYREG_CLKDIST_DCFG2_CFG0), 0x0138u);
 212              		.loc 1 218 0
 213 001a 4FF49C72 		mov	r2, #312
 214 001e 2849     		ldr	r1, .L17+8
 215 0020 0A80     		strh	r2, [r1]	@ movhi
 219:.\Generated_Source\PSoC5/cyfitter_cfg.c **** 	CY_SET_XTND_REG8((void CYFAR *)(CYREG_CLKDIST_DCFG2_CFG0 + 0x2u), 0x18u);
 216              		.loc 1 219 0
 217 0022 0231     		adds	r1, r1, #2
 218 0024 0B70     		strb	r3, [r1]
ARM GAS  C:\Users\Jorden\AppData\Local\Temp\cccASqfJ.s 			page 10


 220:.\Generated_Source\PSoC5/cyfitter_cfg.c **** 	CY_SET_XTND_REG16((void CYFAR *)(CYREG_CLKDIST_DCFG3_CFG0), 0x0138u);
 219              		.loc 1 220 0
 220 0026 0231     		adds	r1, r1, #2
 221 0028 0A80     		strh	r2, [r1]	@ movhi
 221:.\Generated_Source\PSoC5/cyfitter_cfg.c **** 	CY_SET_XTND_REG8((void CYFAR *)(CYREG_CLKDIST_DCFG3_CFG0 + 0x2u), 0x18u);
 222              		.loc 1 221 0
 223 002a 264A     		ldr	r2, .L17+12
 224 002c 1370     		strb	r3, [r2]
 224:.\Generated_Source\PSoC5/cyfitter_cfg.c **** 	CY_SET_XTND_REG8((void CYFAR *)(CYREG_SLOWCLK_ILO_CR0), 0x02u);
 225              		.loc 1 224 0
 226 002e 0222     		movs	r2, #2
 227 0030 254B     		ldr	r3, .L17+16
 228 0032 1A70     		strb	r2, [r3]
 225:.\Generated_Source\PSoC5/cyfitter_cfg.c **** 	CY_SET_XTND_REG8((void CYFAR *)(CYREG_CLKDIST_CR), 0x08u);
 229              		.loc 1 225 0
 230 0034 0823     		movs	r3, #8
 231 0036 4FF04022 		mov	r2, #1073758208
 232 003a 1370     		strb	r3, [r2]
 228:.\Generated_Source\PSoC5/cyfitter_cfg.c **** 	CY_SET_XTND_REG8((void CYFAR *)(CYREG_FASTCLK_IMO_CR), 0x03u);
 233              		.loc 1 228 0
 234 003c 0321     		movs	r1, #3
 235 003e 02F50072 		add	r2, r2, #512
 236 0042 1170     		strb	r1, [r2]
 229:.\Generated_Source\PSoC5/cyfitter_cfg.c **** 	CY_SET_XTND_REG8((void CYFAR *)(CYREG_IMO_TR1), (CY_GET_XTND_REG8((void CYFAR *)CYREG_FLSHID_CUST_
 237              		.loc 1 229 0
 238 0044 214A     		ldr	r2, .L17+20
 239 0046 1178     		ldrb	r1, [r2]	@ zero_extendqisi2
 240 0048 C9B2     		uxtb	r1, r1
 241 004a 214A     		ldr	r2, .L17+24
 242 004c 1170     		strb	r1, [r2]
 232:.\Generated_Source\PSoC5/cyfitter_cfg.c **** 	CY_SET_XTND_REG16((void CYFAR *)(CYREG_FASTCLK_PLL_P), 0x0008u);
 243              		.loc 1 232 0
 244 004e A2F27F42 		subw	r2, r2, #1151
 245 0052 1380     		strh	r3, [r2]	@ movhi
 233:.\Generated_Source\PSoC5/cyfitter_cfg.c **** 	CY_SET_XTND_REG16((void CYFAR *)(CYREG_FASTCLK_PLL_CFG0), 0x1251u);
 246              		.loc 1 233 0
 247 0054 41F25122 		movw	r2, #4689
 248 0058 1E4B     		ldr	r3, .L17+28
 249 005a 1A80     		strh	r2, [r3]	@ movhi
 250              	.LVL17:
 238:.\Generated_Source\PSoC5/cyfitter_cfg.c **** 		pllLock = 0x03u & ((uint8)((uint8)pllLock << 1) | ((CY_GET_XTND_REG8((void CYFAR *)CYREG_FASTCLK_
 251              		.loc 1 238 0
 252 005c 1E4F     		ldr	r7, .L17+32
 239:.\Generated_Source\PSoC5/cyfitter_cfg.c **** 		CyDelayCycles(10u * 48u); /* Delay 10us based on 48MHz clock */
 253              		.loc 1 239 0
 254 005e 4FF4F076 		mov	r6, #480
 236:.\Generated_Source\PSoC5/cyfitter_cfg.c **** 	for (timeout = 250u / 10u; (timeout > 0u) && (pllLock != 0x03u); timeout--)
 255              		.loc 1 236 0
 256 0062 0AE0     		b	.L13
 257              	.LVL18:
 258              	.L15:
 238:.\Generated_Source\PSoC5/cyfitter_cfg.c **** 		pllLock = 0x03u & ((uint8)((uint8)pllLock << 1) | ((CY_GET_XTND_REG8((void CYFAR *)CYREG_FASTCLK_
 259              		.loc 1 238 0 discriminator 1
 260 0064 3B78     		ldrb	r3, [r7]	@ zero_extendqisi2
 261 0066 03F00103 		and	r3, r3, #1
 262 006a 43EA4505 		orr	r5, r3, r5, lsl #1
 263              	.LVL19:
ARM GAS  C:\Users\Jorden\AppData\Local\Temp\cccASqfJ.s 			page 11


 264 006e 05F00305 		and	r5, r5, #3
 265              	.LVL20:
 239:.\Generated_Source\PSoC5/cyfitter_cfg.c **** 		CyDelayCycles(10u * 48u); /* Delay 10us based on 48MHz clock */
 266              		.loc 1 239 0 discriminator 1
 267 0072 3046     		mov	r0, r6
 268 0074 FFF7FEFF 		bl	CyDelayCycles
 269              	.LVL21:
 236:.\Generated_Source\PSoC5/cyfitter_cfg.c **** 	for (timeout = 250u / 10u; (timeout > 0u) && (pllLock != 0x03u); timeout--)
 270              		.loc 1 236 0 discriminator 1
 271 0078 013C     		subs	r4, r4, #1
 272              	.LVL22:
 273              	.L13:
 274 007a 0CB1     		cbz	r4, .L14
 236:.\Generated_Source\PSoC5/cyfitter_cfg.c **** 	for (timeout = 250u / 10u; (timeout > 0u) && (pllLock != 0x03u); timeout--)
 275              		.loc 1 236 0 is_stmt 0 discriminator 2
 276 007c 032D     		cmp	r5, #3
 277 007e F1D1     		bne	.L15
 278              	.L14:
 242:.\Generated_Source\PSoC5/cyfitter_cfg.c **** 	if (timeout == 0u)
 279              		.loc 1 242 0 is_stmt 1
 280 0080 14B9     		cbnz	r4, .L16
 244:.\Generated_Source\PSoC5/cyfitter_cfg.c **** 		CyClockStartupError(CYCLOCKSTART_PLL_ERROR);
 281              		.loc 1 244 0
 282 0082 0320     		movs	r0, #3
 283 0084 FFF7FEFF 		bl	CyClockStartupError
 284              	.LVL23:
 285              	.L16:
 248:.\Generated_Source\PSoC5/cyfitter_cfg.c **** 	CY_SET_XTND_REG16((void CYFAR *)(CYREG_CLKDIST_MSTR0), 0x0100u);
 286              		.loc 1 248 0
 287 0088 144B     		ldr	r3, .L17+36
 288 008a 4FF48072 		mov	r2, #256
 289 008e 1A80     		strh	r2, [r3]	@ movhi
 249:.\Generated_Source\PSoC5/cyfitter_cfg.c **** 	CY_SET_XTND_REG8((void CYFAR *)(CYREG_CLKDIST_MSTR0), 0x07u);
 290              		.loc 1 249 0
 291 0090 0722     		movs	r2, #7
 292 0092 1A70     		strb	r2, [r3]
 250:.\Generated_Source\PSoC5/cyfitter_cfg.c **** 	CY_SET_XTND_REG8((void CYFAR *)(CYREG_CLKDIST_BCFG0), 0x00u);
 293              		.loc 1 250 0
 294 0094 0022     		movs	r2, #0
 295 0096 1249     		ldr	r1, .L17+40
 296 0098 0A70     		strb	r2, [r1]
 251:.\Generated_Source\PSoC5/cyfitter_cfg.c **** 	CY_SET_XTND_REG8((void CYFAR *)(CYREG_CLKDIST_BCFG2), 0x48u);
 297              		.loc 1 251 0
 298 009a 4820     		movs	r0, #72
 299 009c 0231     		adds	r1, r1, #2
 300 009e 0870     		strb	r0, [r1]
 252:.\Generated_Source\PSoC5/cyfitter_cfg.c **** 	CY_SET_XTND_REG8((void CYFAR *)(CYREG_CLKDIST_MSTR0), 0x00u);
 301              		.loc 1 252 0
 302 00a0 1A70     		strb	r2, [r3]
 253:.\Generated_Source\PSoC5/cyfitter_cfg.c **** 	CY_SET_XTND_REG8((void CYFAR *)(CYREG_CLKDIST_LD), 0x02u);
 303              		.loc 1 253 0
 304 00a2 0222     		movs	r2, #2
 305 00a4 033B     		subs	r3, r3, #3
 306 00a6 1A70     		strb	r2, [r3]
 255:.\Generated_Source\PSoC5/cyfitter_cfg.c **** 	CY_SET_XTND_REG8((void CYFAR *)(CYREG_PM_ACT_CFG2), ((CY_GET_XTND_REG8((void CYFAR *)CYREG_PM_ACT_
 307              		.loc 1 255 0
 308 00a8 03F2A133 		addw	r3, r3, #929
ARM GAS  C:\Users\Jorden\AppData\Local\Temp\cccASqfJ.s 			page 12


 309 00ac 1A78     		ldrb	r2, [r3]	@ zero_extendqisi2
 310 00ae 42F00F02 		orr	r2, r2, #15
 311 00b2 1A70     		strb	r2, [r3]
 312 00b4 F8BD     		pop	{r3, r4, r5, r6, r7, pc}
 313              	.LVL24:
 314              	.L18:
 315 00b6 00BF     		.align	2
 316              	.L17:
 317 00b8 80400040 		.word	1073758336
 318 00bc 82400040 		.word	1073758338
 319 00c0 88400040 		.word	1073758344
 320 00c4 8E400040 		.word	1073758350
 321 00c8 00430040 		.word	1073758976
 322 00cc 08010049 		.word	1224737032
 323 00d0 A1460040 		.word	1073759905
 324 00d4 20420040 		.word	1073758752
 325 00d8 25420040 		.word	1073758757
 326 00dc 04400040 		.word	1073758212
 327 00e0 06400040 		.word	1073758214
 328              		.cfi_endproc
 329              	.LFE5:
 330              		.size	ClockSetup, .-ClockSetup
 331              		.section	.text.CYCONFIGCPY,"ax",%progbits
 332              		.align	2
 333              		.thumb
 334              		.thumb_func
 335              		.type	CYCONFIGCPY, %function
 336              	CYCONFIGCPY:
 337              	.LFB1:
  68:.\Generated_Source\PSoC5/cyfitter_cfg.c **** {
 338              		.loc 1 68 0
 339              		.cfi_startproc
 340              		@ args = 0, pretend = 0, frame = 0
 341              		@ frame_needed = 0, uses_anonymous_args = 0
 342              	.LVL25:
 343 0000 08B5     		push	{r3, lr}
 344              		.cfi_def_cfa_offset 8
 345              		.cfi_offset 3, -8
 346              		.cfi_offset 14, -4
  69:.\Generated_Source\PSoC5/cyfitter_cfg.c **** 	(void)memcpy(dest, src, n);
 347              		.loc 1 69 0
 348 0002 FFF7FEFF 		bl	memcpy
 349              	.LVL26:
 350 0006 08BD     		pop	{r3, pc}
 351              		.cfi_endproc
 352              	.LFE1:
 353              		.size	CYCONFIGCPY, .-CYCONFIGCPY
 354              		.section	.text.SetAnalogRoutingPumps,"ax",%progbits
 355              		.align	2
 356              		.global	SetAnalogRoutingPumps
 357              		.thumb
 358              		.thumb_func
 359              		.type	SetAnalogRoutingPumps, %function
 360              	SetAnalogRoutingPumps:
 361              	.LFB7:
 284:.\Generated_Source\PSoC5/cyfitter_cfg.c **** }
 285:.\Generated_Source\PSoC5/cyfitter_cfg.c **** 
ARM GAS  C:\Users\Jorden\AppData\Local\Temp\cccASqfJ.s 			page 13


 286:.\Generated_Source\PSoC5/cyfitter_cfg.c **** 
 287:.\Generated_Source\PSoC5/cyfitter_cfg.c **** /*******************************************************************************
 288:.\Generated_Source\PSoC5/cyfitter_cfg.c **** * Function Name: SetAnalogRoutingPumps
 289:.\Generated_Source\PSoC5/cyfitter_cfg.c **** ********************************************************************************
 290:.\Generated_Source\PSoC5/cyfitter_cfg.c **** *
 291:.\Generated_Source\PSoC5/cyfitter_cfg.c **** * Summary:
 292:.\Generated_Source\PSoC5/cyfitter_cfg.c **** * Enables or disables the analog pumps feeding analog routing switches.
 293:.\Generated_Source\PSoC5/cyfitter_cfg.c **** * Intended to be called at startup, based on the Vdda system configuration;
 294:.\Generated_Source\PSoC5/cyfitter_cfg.c **** * may be called during operation when the user informs us that the Vdda voltage
 295:.\Generated_Source\PSoC5/cyfitter_cfg.c **** * crossed the pump threshold.
 296:.\Generated_Source\PSoC5/cyfitter_cfg.c **** *
 297:.\Generated_Source\PSoC5/cyfitter_cfg.c **** * Parameters:
 298:.\Generated_Source\PSoC5/cyfitter_cfg.c **** *  enabled - 1 to enable the pumps, 0 to disable the pumps
 299:.\Generated_Source\PSoC5/cyfitter_cfg.c **** *
 300:.\Generated_Source\PSoC5/cyfitter_cfg.c **** * Return:
 301:.\Generated_Source\PSoC5/cyfitter_cfg.c **** *  void
 302:.\Generated_Source\PSoC5/cyfitter_cfg.c **** *
 303:.\Generated_Source\PSoC5/cyfitter_cfg.c **** *******************************************************************************/
 304:.\Generated_Source\PSoC5/cyfitter_cfg.c **** void SetAnalogRoutingPumps(uint8 enabled)
 305:.\Generated_Source\PSoC5/cyfitter_cfg.c **** {
 362              		.loc 1 305 0
 363              		.cfi_startproc
 364              		@ args = 0, pretend = 0, frame = 0
 365              		@ frame_needed = 0, uses_anonymous_args = 0
 366              		@ link register save eliminated.
 367              	.LVL27:
 306:.\Generated_Source\PSoC5/cyfitter_cfg.c **** 	uint8 regValue = CY_GET_XTND_REG8((void CYFAR *)CYREG_PUMP_CR0);
 368              		.loc 1 306 0
 369 0000 024B     		ldr	r3, .L21
 370 0002 1A78     		ldrb	r2, [r3]	@ zero_extendqisi2
 371 0004 D2B2     		uxtb	r2, r2
 372              	.LVL28:
 307:.\Generated_Source\PSoC5/cyfitter_cfg.c **** 	if (enabled != 0u)
 308:.\Generated_Source\PSoC5/cyfitter_cfg.c **** 	{
 309:.\Generated_Source\PSoC5/cyfitter_cfg.c **** 		regValue |= 0x00u;
 310:.\Generated_Source\PSoC5/cyfitter_cfg.c **** 	}
 311:.\Generated_Source\PSoC5/cyfitter_cfg.c **** 	else
 312:.\Generated_Source\PSoC5/cyfitter_cfg.c **** 	{
 313:.\Generated_Source\PSoC5/cyfitter_cfg.c **** 		regValue &= (uint8)~0x00u;
 314:.\Generated_Source\PSoC5/cyfitter_cfg.c **** 	}
 315:.\Generated_Source\PSoC5/cyfitter_cfg.c **** 	CY_SET_XTND_REG8((void CYFAR *)CYREG_PUMP_CR0, regValue);
 373              		.loc 1 315 0
 374 0006 1A70     		strb	r2, [r3]
 375 0008 7047     		bx	lr
 376              	.L22:
 377 000a 00BF     		.align	2
 378              	.L21:
 379 000c 76580040 		.word	1073764470
 380              		.cfi_endproc
 381              	.LFE7:
 382              		.size	SetAnalogRoutingPumps, .-SetAnalogRoutingPumps
 383              		.section	.text.cyfitter_cfg,"ax",%progbits
 384              		.align	2
 385              		.global	cyfitter_cfg
 386              		.thumb
 387              		.thumb_func
 388              		.type	cyfitter_cfg, %function
ARM GAS  C:\Users\Jorden\AppData\Local\Temp\cccASqfJ.s 			page 14


 389              	cyfitter_cfg:
 390              	.LFB8:
 316:.\Generated_Source\PSoC5/cyfitter_cfg.c **** }
 317:.\Generated_Source\PSoC5/cyfitter_cfg.c **** 
 318:.\Generated_Source\PSoC5/cyfitter_cfg.c **** #define CY_AMUX_UNUSED CYREG_BOOST_SR
 319:.\Generated_Source\PSoC5/cyfitter_cfg.c **** 
 320:.\Generated_Source\PSoC5/cyfitter_cfg.c **** 
 321:.\Generated_Source\PSoC5/cyfitter_cfg.c **** /*******************************************************************************
 322:.\Generated_Source\PSoC5/cyfitter_cfg.c **** * Function Name: cyfitter_cfg
 323:.\Generated_Source\PSoC5/cyfitter_cfg.c **** ********************************************************************************
 324:.\Generated_Source\PSoC5/cyfitter_cfg.c **** * Summary:
 325:.\Generated_Source\PSoC5/cyfitter_cfg.c **** *  This function is called by the start-up code for the selected device. It
 326:.\Generated_Source\PSoC5/cyfitter_cfg.c **** *  performs all of the necessary device configuration based on the design
 327:.\Generated_Source\PSoC5/cyfitter_cfg.c **** *  settings.  This includes settings from the Design Wide Resources (DWR) such
 328:.\Generated_Source\PSoC5/cyfitter_cfg.c **** *  as Clocks and Pins as well as any component configuration that is necessary.
 329:.\Generated_Source\PSoC5/cyfitter_cfg.c **** *
 330:.\Generated_Source\PSoC5/cyfitter_cfg.c **** * Parameters:  
 331:.\Generated_Source\PSoC5/cyfitter_cfg.c **** *   void
 332:.\Generated_Source\PSoC5/cyfitter_cfg.c **** *
 333:.\Generated_Source\PSoC5/cyfitter_cfg.c **** * Return:
 334:.\Generated_Source\PSoC5/cyfitter_cfg.c **** *   void
 335:.\Generated_Source\PSoC5/cyfitter_cfg.c **** *
 336:.\Generated_Source\PSoC5/cyfitter_cfg.c **** *******************************************************************************/
 337:.\Generated_Source\PSoC5/cyfitter_cfg.c **** 
 338:.\Generated_Source\PSoC5/cyfitter_cfg.c **** void cyfitter_cfg(void)
 339:.\Generated_Source\PSoC5/cyfitter_cfg.c **** {
 391              		.loc 1 339 0
 392              		.cfi_startproc
 393              		@ args = 0, pretend = 0, frame = 0
 394              		@ frame_needed = 0, uses_anonymous_args = 0
 395 0000 38B5     		push	{r3, r4, r5, lr}
 396              		.cfi_def_cfa_offset 16
 397              		.cfi_offset 3, -16
 398              		.cfi_offset 4, -12
 399              		.cfi_offset 5, -8
 400              		.cfi_offset 14, -4
 340:.\Generated_Source\PSoC5/cyfitter_cfg.c **** #ifdef CYGlobalIntDisable
 341:.\Generated_Source\PSoC5/cyfitter_cfg.c **** 	/* Disable interrupts by default. Let user enable if/when they want. */
 342:.\Generated_Source\PSoC5/cyfitter_cfg.c **** 	CYGlobalIntDisable
 401              		.loc 1 342 0
 402              	@ 342 ".\Generated_Source\PSoC5\cyfitter_cfg.c" 1
 403 0002 72B6     		CPSID   i
 404              	@ 0 "" 2
 343:.\Generated_Source\PSoC5/cyfitter_cfg.c **** #endif
 344:.\Generated_Source\PSoC5/cyfitter_cfg.c **** 
 345:.\Generated_Source\PSoC5/cyfitter_cfg.c **** 	/* Enable/Disable Debug functionality based on settings from System DWR */
 346:.\Generated_Source\PSoC5/cyfitter_cfg.c **** 	CY_SET_XTND_REG8((void CYFAR *)CYREG_MLOGIC_DEBUG, (CY_GET_XTND_REG8((void CYFAR *)CYREG_MLOGIC_DE
 405              		.loc 1 346 0
 406              		.thumb
 407 0004 364B     		ldr	r3, .L28
 408 0006 1A78     		ldrb	r2, [r3]	@ zero_extendqisi2
 409 0008 42F00402 		orr	r2, r2, #4
 410 000c 1A70     		strb	r2, [r3]
 411              	.LVL29:
 412              	.LBB3:
 347:.\Generated_Source\PSoC5/cyfitter_cfg.c **** 
 348:.\Generated_Source\PSoC5/cyfitter_cfg.c **** 	{
ARM GAS  C:\Users\Jorden\AppData\Local\Temp\cccASqfJ.s 			page 15


 349:.\Generated_Source\PSoC5/cyfitter_cfg.c **** 
 350:.\Generated_Source\PSoC5/cyfitter_cfg.c **** 		CYPACKED typedef struct {
 351:.\Generated_Source\PSoC5/cyfitter_cfg.c **** 			void CYFAR *address;
 352:.\Generated_Source\PSoC5/cyfitter_cfg.c **** 			uint16 size;
 353:.\Generated_Source\PSoC5/cyfitter_cfg.c **** 		} CYPACKED_ATTR cfg_memset_t;
 354:.\Generated_Source\PSoC5/cyfitter_cfg.c **** 
 355:.\Generated_Source\PSoC5/cyfitter_cfg.c **** 
 356:.\Generated_Source\PSoC5/cyfitter_cfg.c **** 		CYPACKED typedef struct {
 357:.\Generated_Source\PSoC5/cyfitter_cfg.c **** 			void CYFAR *dest;
 358:.\Generated_Source\PSoC5/cyfitter_cfg.c **** 			const void CYFAR *src;
 359:.\Generated_Source\PSoC5/cyfitter_cfg.c **** 			uint16 size;
 360:.\Generated_Source\PSoC5/cyfitter_cfg.c **** 		} CYPACKED_ATTR cfg_memcpy_t;
 361:.\Generated_Source\PSoC5/cyfitter_cfg.c **** 
 362:.\Generated_Source\PSoC5/cyfitter_cfg.c **** 		static const cfg_memset_t CYCODE cfg_memset_list [] = {
 363:.\Generated_Source\PSoC5/cyfitter_cfg.c **** 			/* address, size */
 364:.\Generated_Source\PSoC5/cyfitter_cfg.c **** 			{(void CYFAR *)(CYREG_I2C_XCFG), 25u},
 365:.\Generated_Source\PSoC5/cyfitter_cfg.c **** 			{(void CYFAR *)(CYREG_PRT1_DR), 16u},
 366:.\Generated_Source\PSoC5/cyfitter_cfg.c **** 			{(void CYFAR *)(CYREG_PRT3_DR), 16u},
 367:.\Generated_Source\PSoC5/cyfitter_cfg.c **** 			{(void CYFAR *)(CYREG_PRT5_DR), 16u},
 368:.\Generated_Source\PSoC5/cyfitter_cfg.c **** 			{(void CYFAR *)(CYREG_PRT15_DR), 16u},
 369:.\Generated_Source\PSoC5/cyfitter_cfg.c **** 			{(void CYFAR *)(CYDEV_UCFG_B0_P0_U1_BASE), 3072u},
 370:.\Generated_Source\PSoC5/cyfitter_cfg.c **** 			{(void CYFAR *)(CYDEV_UCFG_B0_P6_ROUTE_BASE), 768u},
 371:.\Generated_Source\PSoC5/cyfitter_cfg.c **** 			{(void CYFAR *)(CYDEV_UCFG_B1_P2_U0_BASE), 2048u},
 372:.\Generated_Source\PSoC5/cyfitter_cfg.c **** 			{(void CYFAR *)(CYDEV_UCFG_DSI0_BASE), 2560u},
 373:.\Generated_Source\PSoC5/cyfitter_cfg.c **** 			{(void CYFAR *)(CYDEV_UCFG_DSI12_BASE), 512u},
 374:.\Generated_Source\PSoC5/cyfitter_cfg.c **** 			{(void CYFAR *)(CYREG_BCTL0_MDCLK_EN), 32u},
 375:.\Generated_Source\PSoC5/cyfitter_cfg.c **** 		};
 376:.\Generated_Source\PSoC5/cyfitter_cfg.c **** 
 377:.\Generated_Source\PSoC5/cyfitter_cfg.c **** 		static const cfg_memcpy_t CYCODE cfg_memcpy_list [] = {
 378:.\Generated_Source\PSoC5/cyfitter_cfg.c **** 			/* dest, src, size */
 379:.\Generated_Source\PSoC5/cyfitter_cfg.c **** 			{(void CYFAR *)(CYDEV_UCFG_B0_P0_U0_BASE), BS_UDB_1_5_0_CONFIG_VAL, 128u},
 380:.\Generated_Source\PSoC5/cyfitter_cfg.c **** 			{(void CYFAR *)(CYDEV_UCFG_B0_P6_U1_BASE), BS_UDB_0_4_0_CONFIG_VAL, 128u},
 381:.\Generated_Source\PSoC5/cyfitter_cfg.c **** 		};
 382:.\Generated_Source\PSoC5/cyfitter_cfg.c **** 
 383:.\Generated_Source\PSoC5/cyfitter_cfg.c **** 		uint8 CYDATA i;
 384:.\Generated_Source\PSoC5/cyfitter_cfg.c **** 
 385:.\Generated_Source\PSoC5/cyfitter_cfg.c **** 		/* Zero out critical memory blocks before beginning configuration */
 386:.\Generated_Source\PSoC5/cyfitter_cfg.c **** 		for (i = 0u; i < (sizeof(cfg_memset_list)/sizeof(cfg_memset_list[0])); i++)
 413              		.loc 1 386 0
 414 000e 0024     		movs	r4, #0
 415              	.LBB4:
 387:.\Generated_Source\PSoC5/cyfitter_cfg.c **** 		{
 388:.\Generated_Source\PSoC5/cyfitter_cfg.c **** 			const cfg_memset_t CYCODE * CYDATA ms = &cfg_memset_list[i];
 416              		.loc 1 388 0
 417 0010 344D     		ldr	r5, .L28+4
 418              	.LBE4:
 386:.\Generated_Source\PSoC5/cyfitter_cfg.c **** 		for (i = 0u; i < (sizeof(cfg_memset_list)/sizeof(cfg_memset_list[0])); i++)
 419              		.loc 1 386 0
 420 0012 09E0     		b	.L24
 421              	.LVL30:
 422              	.L25:
 423              	.LBB5:
 424              		.loc 1 388 0 discriminator 2
 425 0014 04EB4403 		add	r3, r4, r4, lsl #1
 426 0018 5B00     		lsls	r3, r3, #1
 427 001a 2B44     		add	r3, r3, r5
 428              	.LVL31:
ARM GAS  C:\Users\Jorden\AppData\Local\Temp\cccASqfJ.s 			page 16


 389:.\Generated_Source\PSoC5/cyfitter_cfg.c **** 			CYMEMZERO(ms->address, (size_t)(uint32)(ms->size));
 429              		.loc 1 389 0 discriminator 2
 430 001c 1868     		ldr	r0, [r3]	@ unaligned
 431 001e 9988     		ldrh	r1, [r3, #4]
 432 0020 FFF7FEFF 		bl	CYMEMZERO
 433              	.LVL32:
 434              	.LBE5:
 386:.\Generated_Source\PSoC5/cyfitter_cfg.c **** 		for (i = 0u; i < (sizeof(cfg_memset_list)/sizeof(cfg_memset_list[0])); i++)
 435              		.loc 1 386 0 discriminator 2
 436 0024 0134     		adds	r4, r4, #1
 437              	.LVL33:
 438 0026 E4B2     		uxtb	r4, r4
 439              	.LVL34:
 440              	.L24:
 386:.\Generated_Source\PSoC5/cyfitter_cfg.c **** 		for (i = 0u; i < (sizeof(cfg_memset_list)/sizeof(cfg_memset_list[0])); i++)
 441              		.loc 1 386 0 is_stmt 0 discriminator 1
 442 0028 0A2C     		cmp	r4, #10
 443 002a F3D9     		bls	.L25
 444 002c 0024     		movs	r4, #0
 445              	.LVL35:
 446              	.LBB6:
 390:.\Generated_Source\PSoC5/cyfitter_cfg.c **** 		}
 391:.\Generated_Source\PSoC5/cyfitter_cfg.c **** 
 392:.\Generated_Source\PSoC5/cyfitter_cfg.c **** 		/* Copy device configuration data into registers */
 393:.\Generated_Source\PSoC5/cyfitter_cfg.c **** 		for (i = 0u; i < (sizeof(cfg_memcpy_list)/sizeof(cfg_memcpy_list[0])); i++)
 394:.\Generated_Source\PSoC5/cyfitter_cfg.c **** 		{
 395:.\Generated_Source\PSoC5/cyfitter_cfg.c **** 			const cfg_memcpy_t CYCODE * CYDATA mc = &cfg_memcpy_list[i];
 447              		.loc 1 395 0 is_stmt 1
 448 002e 2E4D     		ldr	r5, .L28+8
 449 0030 0AE0     		b	.L26
 450              	.LVL36:
 451              	.L27:
 452              		.loc 1 395 0 is_stmt 0 discriminator 2
 453 0032 04EB8403 		add	r3, r4, r4, lsl #2
 454 0036 5B00     		lsls	r3, r3, #1
 455 0038 2B44     		add	r3, r3, r5
 456              	.LVL37:
 396:.\Generated_Source\PSoC5/cyfitter_cfg.c **** 			void * CYDATA destPtr = mc->dest;
 397:.\Generated_Source\PSoC5/cyfitter_cfg.c **** 			const void * CYDATA srcPtr = mc->src;
 398:.\Generated_Source\PSoC5/cyfitter_cfg.c **** 			uint16 CYDATA numBytes = mc->size;
 399:.\Generated_Source\PSoC5/cyfitter_cfg.c **** 			CYCONFIGCPY(destPtr, srcPtr, numBytes);
 457              		.loc 1 399 0 is_stmt 1 discriminator 2
 458 003a 1868     		ldr	r0, [r3]	@ unaligned
 459              	.LVL38:
 460 003c 5968     		ldr	r1, [r3, #4]	@ unaligned
 461              	.LVL39:
 462 003e 1A89     		ldrh	r2, [r3, #8]
 463 0040 FFF7FEFF 		bl	CYCONFIGCPY
 464              	.LVL40:
 465              	.LBE6:
 393:.\Generated_Source\PSoC5/cyfitter_cfg.c **** 		for (i = 0u; i < (sizeof(cfg_memcpy_list)/sizeof(cfg_memcpy_list[0])); i++)
 466              		.loc 1 393 0 discriminator 2
 467 0044 0134     		adds	r4, r4, #1
 468              	.LVL41:
 469 0046 E4B2     		uxtb	r4, r4
 470              	.LVL42:
 471              	.L26:
ARM GAS  C:\Users\Jorden\AppData\Local\Temp\cccASqfJ.s 			page 17


 393:.\Generated_Source\PSoC5/cyfitter_cfg.c **** 		for (i = 0u; i < (sizeof(cfg_memcpy_list)/sizeof(cfg_memcpy_list[0])); i++)
 472              		.loc 1 393 0 is_stmt 0 discriminator 1
 473 0048 012C     		cmp	r4, #1
 474 004a F2D9     		bls	.L27
 400:.\Generated_Source\PSoC5/cyfitter_cfg.c **** 		}
 401:.\Generated_Source\PSoC5/cyfitter_cfg.c **** 
 402:.\Generated_Source\PSoC5/cyfitter_cfg.c **** 		cfg_write_bytes32(cy_cfg_addr_table, cy_cfg_data_table);
 475              		.loc 1 402 0 is_stmt 1
 476 004c 4FF09040 		mov	r0, #1207959552
 477 0050 2649     		ldr	r1, .L28+12
 478 0052 FFF7FEFF 		bl	cfg_write_bytes32
 479              	.LVL43:
 403:.\Generated_Source\PSoC5/cyfitter_cfg.c **** 
 404:.\Generated_Source\PSoC5/cyfitter_cfg.c **** 		/* Enable digital routing */
 405:.\Generated_Source\PSoC5/cyfitter_cfg.c **** 		CY_SET_XTND_REG8((void CYFAR *)CYREG_BCTL0_BANK_CTL, CY_GET_XTND_REG8((void CYFAR *)CYREG_BCTL0_B
 480              		.loc 1 405 0
 481 0056 264B     		ldr	r3, .L28+16
 482 0058 1A78     		ldrb	r2, [r3]	@ zero_extendqisi2
 483 005a 42F00202 		orr	r2, r2, #2
 484 005e 1A70     		strb	r2, [r3]
 406:.\Generated_Source\PSoC5/cyfitter_cfg.c **** 		CY_SET_XTND_REG8((void CYFAR *)CYREG_BCTL1_BANK_CTL, CY_GET_XTND_REG8((void CYFAR *)CYREG_BCTL1_B
 485              		.loc 1 406 0
 486 0060 1033     		adds	r3, r3, #16
 487 0062 1A78     		ldrb	r2, [r3]	@ zero_extendqisi2
 488 0064 42F00202 		orr	r2, r2, #2
 489 0068 1A70     		strb	r2, [r3]
 407:.\Generated_Source\PSoC5/cyfitter_cfg.c **** 
 408:.\Generated_Source\PSoC5/cyfitter_cfg.c **** 		/* Enable UDB array */
 409:.\Generated_Source\PSoC5/cyfitter_cfg.c **** 		CY_SET_XTND_REG8((void CYFAR *)CYREG_PM_ACT_CFG0, CY_GET_XTND_REG8((void CYFAR *)CYREG_PM_ACT_CFG
 490              		.loc 1 409 0
 491 006a 224C     		ldr	r4, .L28+20
 492              	.LVL44:
 493 006c 2378     		ldrb	r3, [r4]	@ zero_extendqisi2
 494 006e 43F04003 		orr	r3, r3, #64
 495 0072 2370     		strb	r3, [r4]
 410:.\Generated_Source\PSoC5/cyfitter_cfg.c **** 		CY_SET_XTND_REG8((void CYFAR *)CYREG_PM_AVAIL_CR2, CY_GET_XTND_REG8((void CYFAR *)CYREG_PM_AVAIL_
 496              		.loc 1 410 0
 497 0074 204B     		ldr	r3, .L28+24
 498 0076 1A78     		ldrb	r2, [r3]	@ zero_extendqisi2
 499 0078 42F01002 		orr	r2, r2, #16
 500 007c 1A70     		strb	r2, [r3]
 501              	.LBE3:
 411:.\Generated_Source\PSoC5/cyfitter_cfg.c **** 	}
 412:.\Generated_Source\PSoC5/cyfitter_cfg.c **** 
 413:.\Generated_Source\PSoC5/cyfitter_cfg.c **** 
 414:.\Generated_Source\PSoC5/cyfitter_cfg.c **** 	/* Perform second pass device configuration. These items must be configured in specific order afte
 415:.\Generated_Source\PSoC5/cyfitter_cfg.c **** 	CYCONFIGCPY((void CYFAR *)(CYREG_PRT0_DM0), (const void CYFAR *)(BS_IOPINS0_0_VAL), 8u);
 502              		.loc 1 415 0
 503 007e 1F48     		ldr	r0, .L28+28
 504 0080 1F49     		ldr	r1, .L28+32
 505 0082 0822     		movs	r2, #8
 506 0084 FFF7FEFF 		bl	CYCONFIGCPY
 507              	.LVL45:
 416:.\Generated_Source\PSoC5/cyfitter_cfg.c **** 	CYCONFIGCPY((void CYFAR *)(CYREG_PRT12_DM0), (const void CYFAR *)(BS_IOPINS0_7_VAL), 8u);
 508              		.loc 1 416 0
 509 0088 1E48     		ldr	r0, .L28+36
 510 008a 1F49     		ldr	r1, .L28+40
ARM GAS  C:\Users\Jorden\AppData\Local\Temp\cccASqfJ.s 			page 18


 511 008c 0822     		movs	r2, #8
 512 008e FFF7FEFF 		bl	CYCONFIGCPY
 513              	.LVL46:
 417:.\Generated_Source\PSoC5/cyfitter_cfg.c **** 	CYCONFIGCPY((void CYFAR *)(CYREG_PRT2_DR), (const void CYFAR *)(BS_IOPINS0_2_VAL), 10u);
 514              		.loc 1 417 0
 515 0092 1E48     		ldr	r0, .L28+44
 516 0094 1E49     		ldr	r1, .L28+48
 517 0096 0A22     		movs	r2, #10
 518 0098 FFF7FEFF 		bl	CYCONFIGCPY
 519              	.LVL47:
 418:.\Generated_Source\PSoC5/cyfitter_cfg.c **** 	CYCONFIGCPY((void CYFAR *)(CYREG_PRT4_DM0), (const void CYFAR *)(BS_IOPINS0_4_VAL), 8u);
 520              		.loc 1 418 0
 521 009c 1D48     		ldr	r0, .L28+52
 522 009e 1E49     		ldr	r1, .L28+56
 523 00a0 0822     		movs	r2, #8
 524 00a2 FFF7FEFF 		bl	CYCONFIGCPY
 525              	.LVL48:
 419:.\Generated_Source\PSoC5/cyfitter_cfg.c **** 	CYCONFIGCPY((void CYFAR *)(CYREG_PRT6_DR), (const void CYFAR *)(BS_IOPINS0_6_VAL), 10u);
 526              		.loc 1 419 0
 527 00a6 1D48     		ldr	r0, .L28+60
 528 00a8 1D49     		ldr	r1, .L28+64
 529 00aa 0A22     		movs	r2, #10
 530 00ac FFF7FEFF 		bl	CYCONFIGCPY
 531              	.LVL49:
 420:.\Generated_Source\PSoC5/cyfitter_cfg.c **** 	/* Switch Boost to the precision bandgap reference from its internal reference */
 421:.\Generated_Source\PSoC5/cyfitter_cfg.c **** 	CY_SET_REG8((void CYXDATA *)CYREG_BOOST_CR2, (CY_GET_REG8((void CYXDATA *)CYREG_BOOST_CR2) | 0x08u
 532              		.loc 1 421 0
 533 00b0 1C4B     		ldr	r3, .L28+68
 534 00b2 1A78     		ldrb	r2, [r3]	@ zero_extendqisi2
 535 00b4 42F00802 		orr	r2, r2, #8
 536 00b8 1A70     		strb	r2, [r3]
 422:.\Generated_Source\PSoC5/cyfitter_cfg.c **** 
 423:.\Generated_Source\PSoC5/cyfitter_cfg.c **** 	/* Set Flash Cycles based on max possible frequency in case a glitch occurs during ClockSetup(). *
 424:.\Generated_Source\PSoC5/cyfitter_cfg.c **** 	CY_SET_XTND_REG8((void CYFAR *)(CYREG_CACHE_CC_CTL), (((CYDEV_INSTRUCT_CACHE_ENABLED) != 0) ? 0x61
 537              		.loc 1 424 0
 538 00ba 1B4D     		ldr	r5, .L28+72
 539 00bc 6123     		movs	r3, #97
 540 00be 2B70     		strb	r3, [r5]
 425:.\Generated_Source\PSoC5/cyfitter_cfg.c **** 	/* Setup clocks based on selections from Clock DWR */
 426:.\Generated_Source\PSoC5/cyfitter_cfg.c **** 	ClockSetup();
 541              		.loc 1 426 0
 542 00c0 FFF7FEFF 		bl	ClockSetup
 543              	.LVL50:
 427:.\Generated_Source\PSoC5/cyfitter_cfg.c **** 	/* Set Flash Cycles based on newly configured 24.00MHz Bus Clock. */
 428:.\Generated_Source\PSoC5/cyfitter_cfg.c **** 	CY_SET_XTND_REG8((void CYFAR *)(CYREG_CACHE_CC_CTL), (((CYDEV_INSTRUCT_CACHE_ENABLED) != 0) ? 0x81
 544              		.loc 1 428 0
 545 00c4 8123     		movs	r3, #129
 546 00c6 2B70     		strb	r3, [r5]
 429:.\Generated_Source\PSoC5/cyfitter_cfg.c **** 	CY_SET_XTND_REG8((void CYFAR *)(CYREG_PANTHER_WAITPIPE), 0x01u);
 547              		.loc 1 429 0
 548 00c8 0122     		movs	r2, #1
 549 00ca 184B     		ldr	r3, .L28+76
 550 00cc 1A70     		strb	r2, [r3]
 430:.\Generated_Source\PSoC5/cyfitter_cfg.c **** 
 431:.\Generated_Source\PSoC5/cyfitter_cfg.c **** 	/* Perform basic analog initialization to defaults */
 432:.\Generated_Source\PSoC5/cyfitter_cfg.c **** 	AnalogSetDefault();
 551              		.loc 1 432 0
ARM GAS  C:\Users\Jorden\AppData\Local\Temp\cccASqfJ.s 			page 19


 552 00ce FFF7FEFF 		bl	AnalogSetDefault
 553              	.LVL51:
 433:.\Generated_Source\PSoC5/cyfitter_cfg.c **** 
 434:.\Generated_Source\PSoC5/cyfitter_cfg.c **** 	/* Configure alternate active mode */
 435:.\Generated_Source\PSoC5/cyfitter_cfg.c **** 	CYCONFIGCPY((void CYFAR *)CYDEV_PM_STBY_BASE, (const void CYFAR *)CYDEV_PM_ACT_BASE, 14u);
 554              		.loc 1 435 0
 555 00d2 1748     		ldr	r0, .L28+80
 556 00d4 2146     		mov	r1, r4
 557 00d6 0E22     		movs	r2, #14
 558 00d8 FFF7FEFF 		bl	CYCONFIGCPY
 559              	.LVL52:
 560 00dc 38BD     		pop	{r3, r4, r5, pc}
 561              	.L29:
 562 00de 00BF     		.align	2
 563              	.L28:
 564 00e0 E8460040 		.word	1073759976
 565 00e4 00000000 		.word	.LANCHOR0
 566 00e8 44000000 		.word	.LANCHOR0+68
 567 00ec 90000048 		.word	1207959696
 568 00f0 03500140 		.word	1073827843
 569 00f4 A0430040 		.word	1073759136
 570 00f8 C2430040 		.word	1073759170
 571 00fc 02510040 		.word	1073762562
 572 0100 780A0048 		.word	1207962232
 573 0104 C2510040 		.word	1073762754
 574 0108 800A0048 		.word	1207962240
 575 010c 20510040 		.word	1073762592
 576 0110 880A0048 		.word	1207962248
 577 0114 42510040 		.word	1073762626
 578 0118 940A0048 		.word	1207962260
 579 011c 60510040 		.word	1073762656
 580 0120 9C0A0048 		.word	1207962268
 581 0124 22430040 		.word	1073759010
 582 0128 00480040 		.word	1073760256
 583 012c 04000840 		.word	1074266116
 584 0130 B0430040 		.word	1073759152
 585              		.cfi_endproc
 586              	.LFE8:
 587              		.size	cyfitter_cfg, .-cyfitter_cfg
 588              		.section	.rodata
 589              		.align	2
 590              		.set	.LANCHOR0,. + 0
 591              		.type	cfg_memset_list.4888, %object
 592              		.size	cfg_memset_list.4888, 66
 593              	cfg_memset_list.4888:
 594 0000 C8490040 		.word	1073760712
 595 0004 1900     		.short	25
 596 0006 10510040 		.4byte	1073762576
 597 000a 1000     		.short	16
 598 000c 30510040 		.word	1073762608
 599 0010 1000     		.short	16
 600 0012 50510040 		.4byte	1073762640
 601 0016 1000     		.short	16
 602 0018 F0510040 		.word	1073762800
 603 001c 1000     		.short	16
 604 001e 80000140 		.4byte	1073807488
 605 0022 000C     		.short	3072
ARM GAS  C:\Users\Jorden\AppData\Local\Temp\cccASqfJ.s 			page 20


 606 0024 000D0140 		.word	1073810688
 607 0028 0003     		.short	768
 608 002a 00140140 		.4byte	1073812480
 609 002e 0008     		.short	2048
 610 0030 00400140 		.word	1073823744
 611 0034 000A     		.short	2560
 612 0036 004C0140 		.4byte	1073826816
 613 003a 0002     		.short	512
 614 003c 00500140 		.word	1073827840
 615 0040 2000     		.short	32
 616 0042 0000     		.space	2
 617              		.type	cfg_memcpy_list.4889, %object
 618              		.size	cfg_memcpy_list.4889, 20
 619              	cfg_memcpy_list.4889:
 620 0044 00000140 		.word	1073807360
 621 0048 78090048 		.word	1207961976
 622 004c 8000     		.short	128
 623 004e 800C0140 		.4byte	1073810560
 624 0052 F8090048 		.4byte	1207962104
 625 0056 8000     		.short	128
 626              		.text
 627              	.Letext0:
 628              		.file 2 "c:\\program files (x86)\\cypress\\psoc creator\\3.2\\psoc creator\\import\\gnu\\arm\\4.8.
 629              		.file 3 ".\\Generated_Source\\PSoC5\\cytypes.h"
 630              		.file 4 ".\\Generated_Source\\PSoC5\\CyLib.h"