ARM GAS  C:\Users\Jorden\AppData\Local\Temp\ccQcvMzj.s 			page 1


   1              		.syntax unified
   2              		.cpu cortex-m3
   3              		.fpu softvfp
   4              		.eabi_attribute 20, 1
   5              		.eabi_attribute 21, 1
   6              		.eabi_attribute 23, 3
   7              		.eabi_attribute 24, 1
   8              		.eabi_attribute 25, 1
   9              		.eabi_attribute 26, 1
  10              		.eabi_attribute 30, 1
  11              		.eabi_attribute 34, 1
  12              		.eabi_attribute 18, 4
  13              		.thumb
  14              		.file	"EN_A_PWM.c"
  15              		.text
  16              	.Ltext0:
  17              		.cfi_sections	.debug_frame
  18              		.section	.text.EN_A_PWM_Enable,"ax",%progbits
  19              		.align	2
  20              		.global	EN_A_PWM_Enable
  21              		.thumb
  22              		.thumb_func
  23              		.type	EN_A_PWM_Enable, %function
  24              	EN_A_PWM_Enable:
  25              	.LFB2:
  26              		.file 1 ".\\Generated_Source\\PSoC5\\EN_A_PWM.c"
   1:.\Generated_Source\PSoC5/EN_A_PWM.c **** /*******************************************************************************
   2:.\Generated_Source\PSoC5/EN_A_PWM.c **** * File Name: EN_A_PWM.c
   3:.\Generated_Source\PSoC5/EN_A_PWM.c **** * Version 3.30
   4:.\Generated_Source\PSoC5/EN_A_PWM.c **** *
   5:.\Generated_Source\PSoC5/EN_A_PWM.c **** * Description:
   6:.\Generated_Source\PSoC5/EN_A_PWM.c **** *  The PWM User Module consist of an 8 or 16-bit counter with two 8 or 16-bit
   7:.\Generated_Source\PSoC5/EN_A_PWM.c **** *  comparitors. Each instance of this user module is capable of generating
   8:.\Generated_Source\PSoC5/EN_A_PWM.c **** *  two PWM outputs with the same period. The pulse width is selectable between
   9:.\Generated_Source\PSoC5/EN_A_PWM.c **** *  1 and 255/65535. The period is selectable between 2 and 255/65536 clocks.
  10:.\Generated_Source\PSoC5/EN_A_PWM.c **** *  The compare value output may be configured to be active when the present
  11:.\Generated_Source\PSoC5/EN_A_PWM.c **** *  counter is less than or less than/equal to the compare value.
  12:.\Generated_Source\PSoC5/EN_A_PWM.c **** *  A terminal count output is also provided. It generates a pulse one clock
  13:.\Generated_Source\PSoC5/EN_A_PWM.c **** *  width wide when the counter is equal to zero.
  14:.\Generated_Source\PSoC5/EN_A_PWM.c **** *
  15:.\Generated_Source\PSoC5/EN_A_PWM.c **** * Note:
  16:.\Generated_Source\PSoC5/EN_A_PWM.c **** *
  17:.\Generated_Source\PSoC5/EN_A_PWM.c **** *******************************************************************************
  18:.\Generated_Source\PSoC5/EN_A_PWM.c **** * Copyright 2008-2014, Cypress Semiconductor Corporation.  All rights reserved.
  19:.\Generated_Source\PSoC5/EN_A_PWM.c **** * You may use this file only in accordance with the license, terms, conditions,
  20:.\Generated_Source\PSoC5/EN_A_PWM.c **** * disclaimers, and limitations in the end user license agreement accompanying
  21:.\Generated_Source\PSoC5/EN_A_PWM.c **** * the software package with which this file was provided.
  22:.\Generated_Source\PSoC5/EN_A_PWM.c **** ********************************************************************************/
  23:.\Generated_Source\PSoC5/EN_A_PWM.c **** 
  24:.\Generated_Source\PSoC5/EN_A_PWM.c **** #include "EN_A_PWM.h"
  25:.\Generated_Source\PSoC5/EN_A_PWM.c **** 
  26:.\Generated_Source\PSoC5/EN_A_PWM.c **** /* Error message for removed <resource> through optimization */
  27:.\Generated_Source\PSoC5/EN_A_PWM.c **** #ifdef EN_A_PWM_PWMUDB_genblk1_ctrlreg__REMOVED
  28:.\Generated_Source\PSoC5/EN_A_PWM.c ****     #error PWM_v3_30 detected with a constant 0 for the enable or \
  29:.\Generated_Source\PSoC5/EN_A_PWM.c ****          constant 1 for reset. This will prevent the component from operating.
  30:.\Generated_Source\PSoC5/EN_A_PWM.c **** #endif /* EN_A_PWM_PWMUDB_genblk1_ctrlreg__REMOVED */
  31:.\Generated_Source\PSoC5/EN_A_PWM.c **** 
ARM GAS  C:\Users\Jorden\AppData\Local\Temp\ccQcvMzj.s 			page 2


  32:.\Generated_Source\PSoC5/EN_A_PWM.c **** uint8 EN_A_PWM_initVar = 0u;
  33:.\Generated_Source\PSoC5/EN_A_PWM.c **** 
  34:.\Generated_Source\PSoC5/EN_A_PWM.c **** 
  35:.\Generated_Source\PSoC5/EN_A_PWM.c **** /*******************************************************************************
  36:.\Generated_Source\PSoC5/EN_A_PWM.c **** * Function Name: EN_A_PWM_Start
  37:.\Generated_Source\PSoC5/EN_A_PWM.c **** ********************************************************************************
  38:.\Generated_Source\PSoC5/EN_A_PWM.c **** *
  39:.\Generated_Source\PSoC5/EN_A_PWM.c **** * Summary:
  40:.\Generated_Source\PSoC5/EN_A_PWM.c **** *  The start function initializes the pwm with the default values, the
  41:.\Generated_Source\PSoC5/EN_A_PWM.c **** *  enables the counter to begin counting.  It does not enable interrupts,
  42:.\Generated_Source\PSoC5/EN_A_PWM.c **** *  the EnableInt command should be called if interrupt generation is required.
  43:.\Generated_Source\PSoC5/EN_A_PWM.c **** *
  44:.\Generated_Source\PSoC5/EN_A_PWM.c **** * Parameters:
  45:.\Generated_Source\PSoC5/EN_A_PWM.c **** *  None
  46:.\Generated_Source\PSoC5/EN_A_PWM.c **** *
  47:.\Generated_Source\PSoC5/EN_A_PWM.c **** * Return:
  48:.\Generated_Source\PSoC5/EN_A_PWM.c **** *  None
  49:.\Generated_Source\PSoC5/EN_A_PWM.c **** *
  50:.\Generated_Source\PSoC5/EN_A_PWM.c **** * Global variables:
  51:.\Generated_Source\PSoC5/EN_A_PWM.c **** *  EN_A_PWM_initVar: Is modified when this function is called for the
  52:.\Generated_Source\PSoC5/EN_A_PWM.c **** *   first time. Is used to ensure that initialization happens only once.
  53:.\Generated_Source\PSoC5/EN_A_PWM.c **** *
  54:.\Generated_Source\PSoC5/EN_A_PWM.c **** *******************************************************************************/
  55:.\Generated_Source\PSoC5/EN_A_PWM.c **** void EN_A_PWM_Start(void) 
  56:.\Generated_Source\PSoC5/EN_A_PWM.c **** {
  57:.\Generated_Source\PSoC5/EN_A_PWM.c ****     /* If not Initialized then initialize all required hardware and software */
  58:.\Generated_Source\PSoC5/EN_A_PWM.c ****     if(EN_A_PWM_initVar == 0u)
  59:.\Generated_Source\PSoC5/EN_A_PWM.c ****     {
  60:.\Generated_Source\PSoC5/EN_A_PWM.c ****         EN_A_PWM_Init();
  61:.\Generated_Source\PSoC5/EN_A_PWM.c ****         EN_A_PWM_initVar = 1u;
  62:.\Generated_Source\PSoC5/EN_A_PWM.c ****     }
  63:.\Generated_Source\PSoC5/EN_A_PWM.c ****     EN_A_PWM_Enable();
  64:.\Generated_Source\PSoC5/EN_A_PWM.c **** 
  65:.\Generated_Source\PSoC5/EN_A_PWM.c **** }
  66:.\Generated_Source\PSoC5/EN_A_PWM.c **** 
  67:.\Generated_Source\PSoC5/EN_A_PWM.c **** 
  68:.\Generated_Source\PSoC5/EN_A_PWM.c **** /*******************************************************************************
  69:.\Generated_Source\PSoC5/EN_A_PWM.c **** * Function Name: EN_A_PWM_Init
  70:.\Generated_Source\PSoC5/EN_A_PWM.c **** ********************************************************************************
  71:.\Generated_Source\PSoC5/EN_A_PWM.c **** *
  72:.\Generated_Source\PSoC5/EN_A_PWM.c **** * Summary:
  73:.\Generated_Source\PSoC5/EN_A_PWM.c **** *  Initialize component's parameters to the parameters set by user in the
  74:.\Generated_Source\PSoC5/EN_A_PWM.c **** *  customizer of the component placed onto schematic. Usually called in
  75:.\Generated_Source\PSoC5/EN_A_PWM.c **** *  EN_A_PWM_Start().
  76:.\Generated_Source\PSoC5/EN_A_PWM.c **** *
  77:.\Generated_Source\PSoC5/EN_A_PWM.c **** * Parameters:
  78:.\Generated_Source\PSoC5/EN_A_PWM.c **** *  None
  79:.\Generated_Source\PSoC5/EN_A_PWM.c **** *
  80:.\Generated_Source\PSoC5/EN_A_PWM.c **** * Return:
  81:.\Generated_Source\PSoC5/EN_A_PWM.c **** *  None
  82:.\Generated_Source\PSoC5/EN_A_PWM.c **** *
  83:.\Generated_Source\PSoC5/EN_A_PWM.c **** *******************************************************************************/
  84:.\Generated_Source\PSoC5/EN_A_PWM.c **** void EN_A_PWM_Init(void) 
  85:.\Generated_Source\PSoC5/EN_A_PWM.c **** {
  86:.\Generated_Source\PSoC5/EN_A_PWM.c ****     #if (EN_A_PWM_UsingFixedFunction || EN_A_PWM_UseControl)
  87:.\Generated_Source\PSoC5/EN_A_PWM.c ****         uint8 ctrl;
  88:.\Generated_Source\PSoC5/EN_A_PWM.c ****     #endif /* (EN_A_PWM_UsingFixedFunction || EN_A_PWM_UseControl) */
ARM GAS  C:\Users\Jorden\AppData\Local\Temp\ccQcvMzj.s 			page 3


  89:.\Generated_Source\PSoC5/EN_A_PWM.c **** 
  90:.\Generated_Source\PSoC5/EN_A_PWM.c ****     #if(!EN_A_PWM_UsingFixedFunction)
  91:.\Generated_Source\PSoC5/EN_A_PWM.c ****         #if(EN_A_PWM_UseStatus)
  92:.\Generated_Source\PSoC5/EN_A_PWM.c ****             /* Interrupt State Backup for Critical Region*/
  93:.\Generated_Source\PSoC5/EN_A_PWM.c ****             uint8 EN_A_PWM_interruptState;
  94:.\Generated_Source\PSoC5/EN_A_PWM.c ****         #endif /* (EN_A_PWM_UseStatus) */
  95:.\Generated_Source\PSoC5/EN_A_PWM.c ****     #endif /* (!EN_A_PWM_UsingFixedFunction) */
  96:.\Generated_Source\PSoC5/EN_A_PWM.c **** 
  97:.\Generated_Source\PSoC5/EN_A_PWM.c ****     #if (EN_A_PWM_UsingFixedFunction)
  98:.\Generated_Source\PSoC5/EN_A_PWM.c ****         /* You are allowed to write the compare value (FF only) */
  99:.\Generated_Source\PSoC5/EN_A_PWM.c ****         EN_A_PWM_CONTROL |= EN_A_PWM_CFG0_MODE;
 100:.\Generated_Source\PSoC5/EN_A_PWM.c ****         #if (EN_A_PWM_DeadBand2_4)
 101:.\Generated_Source\PSoC5/EN_A_PWM.c ****             EN_A_PWM_CONTROL |= EN_A_PWM_CFG0_DB;
 102:.\Generated_Source\PSoC5/EN_A_PWM.c ****         #endif /* (EN_A_PWM_DeadBand2_4) */
 103:.\Generated_Source\PSoC5/EN_A_PWM.c **** 
 104:.\Generated_Source\PSoC5/EN_A_PWM.c ****         ctrl = EN_A_PWM_CONTROL3 & ((uint8 )(~EN_A_PWM_CTRL_CMPMODE1_MASK));
 105:.\Generated_Source\PSoC5/EN_A_PWM.c ****         EN_A_PWM_CONTROL3 = ctrl | EN_A_PWM_DEFAULT_COMPARE1_MODE;
 106:.\Generated_Source\PSoC5/EN_A_PWM.c **** 
 107:.\Generated_Source\PSoC5/EN_A_PWM.c ****          /* Clear and Set SYNCTC and SYNCCMP bits of RT1 register */
 108:.\Generated_Source\PSoC5/EN_A_PWM.c ****         EN_A_PWM_RT1 &= ((uint8)(~EN_A_PWM_RT1_MASK));
 109:.\Generated_Source\PSoC5/EN_A_PWM.c ****         EN_A_PWM_RT1 |= EN_A_PWM_SYNC;
 110:.\Generated_Source\PSoC5/EN_A_PWM.c **** 
 111:.\Generated_Source\PSoC5/EN_A_PWM.c ****         /*Enable DSI Sync all all inputs of the PWM*/
 112:.\Generated_Source\PSoC5/EN_A_PWM.c ****         EN_A_PWM_RT1 &= ((uint8)(~EN_A_PWM_SYNCDSI_MASK));
 113:.\Generated_Source\PSoC5/EN_A_PWM.c ****         EN_A_PWM_RT1 |= EN_A_PWM_SYNCDSI_EN;
 114:.\Generated_Source\PSoC5/EN_A_PWM.c **** 
 115:.\Generated_Source\PSoC5/EN_A_PWM.c ****     #elif (EN_A_PWM_UseControl)
 116:.\Generated_Source\PSoC5/EN_A_PWM.c ****         /* Set the default compare mode defined in the parameter */
 117:.\Generated_Source\PSoC5/EN_A_PWM.c ****         ctrl = EN_A_PWM_CONTROL & ((uint8)(~EN_A_PWM_CTRL_CMPMODE2_MASK)) &
 118:.\Generated_Source\PSoC5/EN_A_PWM.c ****                 ((uint8)(~EN_A_PWM_CTRL_CMPMODE1_MASK));
 119:.\Generated_Source\PSoC5/EN_A_PWM.c ****         EN_A_PWM_CONTROL = ctrl | EN_A_PWM_DEFAULT_COMPARE2_MODE |
 120:.\Generated_Source\PSoC5/EN_A_PWM.c ****                                    EN_A_PWM_DEFAULT_COMPARE1_MODE;
 121:.\Generated_Source\PSoC5/EN_A_PWM.c ****     #endif /* (EN_A_PWM_UsingFixedFunction) */
 122:.\Generated_Source\PSoC5/EN_A_PWM.c **** 
 123:.\Generated_Source\PSoC5/EN_A_PWM.c ****     #if (!EN_A_PWM_UsingFixedFunction)
 124:.\Generated_Source\PSoC5/EN_A_PWM.c ****         #if (EN_A_PWM_Resolution == 8)
 125:.\Generated_Source\PSoC5/EN_A_PWM.c ****             /* Set FIFO 0 to 1 byte register for period*/
 126:.\Generated_Source\PSoC5/EN_A_PWM.c ****             EN_A_PWM_AUX_CONTROLDP0 |= (EN_A_PWM_AUX_CTRL_FIFO0_CLR);
 127:.\Generated_Source\PSoC5/EN_A_PWM.c ****         #else /* (EN_A_PWM_Resolution == 16)*/
 128:.\Generated_Source\PSoC5/EN_A_PWM.c ****             /* Set FIFO 0 to 1 byte register for period */
 129:.\Generated_Source\PSoC5/EN_A_PWM.c ****             EN_A_PWM_AUX_CONTROLDP0 |= (EN_A_PWM_AUX_CTRL_FIFO0_CLR);
 130:.\Generated_Source\PSoC5/EN_A_PWM.c ****             EN_A_PWM_AUX_CONTROLDP1 |= (EN_A_PWM_AUX_CTRL_FIFO0_CLR);
 131:.\Generated_Source\PSoC5/EN_A_PWM.c ****         #endif /* (EN_A_PWM_Resolution == 8) */
 132:.\Generated_Source\PSoC5/EN_A_PWM.c **** 
 133:.\Generated_Source\PSoC5/EN_A_PWM.c ****         EN_A_PWM_WriteCounter(EN_A_PWM_INIT_PERIOD_VALUE);
 134:.\Generated_Source\PSoC5/EN_A_PWM.c ****     #endif /* (!EN_A_PWM_UsingFixedFunction) */
 135:.\Generated_Source\PSoC5/EN_A_PWM.c **** 
 136:.\Generated_Source\PSoC5/EN_A_PWM.c ****     EN_A_PWM_WritePeriod(EN_A_PWM_INIT_PERIOD_VALUE);
 137:.\Generated_Source\PSoC5/EN_A_PWM.c **** 
 138:.\Generated_Source\PSoC5/EN_A_PWM.c ****         #if (EN_A_PWM_UseOneCompareMode)
 139:.\Generated_Source\PSoC5/EN_A_PWM.c ****             EN_A_PWM_WriteCompare(EN_A_PWM_INIT_COMPARE_VALUE1);
 140:.\Generated_Source\PSoC5/EN_A_PWM.c ****         #else
 141:.\Generated_Source\PSoC5/EN_A_PWM.c ****             EN_A_PWM_WriteCompare1(EN_A_PWM_INIT_COMPARE_VALUE1);
 142:.\Generated_Source\PSoC5/EN_A_PWM.c ****             EN_A_PWM_WriteCompare2(EN_A_PWM_INIT_COMPARE_VALUE2);
 143:.\Generated_Source\PSoC5/EN_A_PWM.c ****         #endif /* (EN_A_PWM_UseOneCompareMode) */
 144:.\Generated_Source\PSoC5/EN_A_PWM.c **** 
 145:.\Generated_Source\PSoC5/EN_A_PWM.c ****         #if (EN_A_PWM_KillModeMinTime)
ARM GAS  C:\Users\Jorden\AppData\Local\Temp\ccQcvMzj.s 			page 4


 146:.\Generated_Source\PSoC5/EN_A_PWM.c ****             EN_A_PWM_WriteKillTime(EN_A_PWM_MinimumKillTime);
 147:.\Generated_Source\PSoC5/EN_A_PWM.c ****         #endif /* (EN_A_PWM_KillModeMinTime) */
 148:.\Generated_Source\PSoC5/EN_A_PWM.c **** 
 149:.\Generated_Source\PSoC5/EN_A_PWM.c ****         #if (EN_A_PWM_DeadBandUsed)
 150:.\Generated_Source\PSoC5/EN_A_PWM.c ****             EN_A_PWM_WriteDeadTime(EN_A_PWM_INIT_DEAD_TIME);
 151:.\Generated_Source\PSoC5/EN_A_PWM.c ****         #endif /* (EN_A_PWM_DeadBandUsed) */
 152:.\Generated_Source\PSoC5/EN_A_PWM.c **** 
 153:.\Generated_Source\PSoC5/EN_A_PWM.c ****     #if (EN_A_PWM_UseStatus || EN_A_PWM_UsingFixedFunction)
 154:.\Generated_Source\PSoC5/EN_A_PWM.c ****         EN_A_PWM_SetInterruptMode(EN_A_PWM_INIT_INTERRUPTS_MODE);
 155:.\Generated_Source\PSoC5/EN_A_PWM.c ****     #endif /* (EN_A_PWM_UseStatus || EN_A_PWM_UsingFixedFunction) */
 156:.\Generated_Source\PSoC5/EN_A_PWM.c **** 
 157:.\Generated_Source\PSoC5/EN_A_PWM.c ****     #if (EN_A_PWM_UsingFixedFunction)
 158:.\Generated_Source\PSoC5/EN_A_PWM.c ****         /* Globally Enable the Fixed Function Block chosen */
 159:.\Generated_Source\PSoC5/EN_A_PWM.c ****         EN_A_PWM_GLOBAL_ENABLE |= EN_A_PWM_BLOCK_EN_MASK;
 160:.\Generated_Source\PSoC5/EN_A_PWM.c ****         /* Set the Interrupt source to come from the status register */
 161:.\Generated_Source\PSoC5/EN_A_PWM.c ****         EN_A_PWM_CONTROL2 |= EN_A_PWM_CTRL2_IRQ_SEL;
 162:.\Generated_Source\PSoC5/EN_A_PWM.c ****     #else
 163:.\Generated_Source\PSoC5/EN_A_PWM.c ****         #if(EN_A_PWM_UseStatus)
 164:.\Generated_Source\PSoC5/EN_A_PWM.c **** 
 165:.\Generated_Source\PSoC5/EN_A_PWM.c ****             /* CyEnterCriticalRegion and CyExitCriticalRegion are used to mark following region cri
 166:.\Generated_Source\PSoC5/EN_A_PWM.c ****             /* Enter Critical Region*/
 167:.\Generated_Source\PSoC5/EN_A_PWM.c ****             EN_A_PWM_interruptState = CyEnterCriticalSection();
 168:.\Generated_Source\PSoC5/EN_A_PWM.c ****             /* Use the interrupt output of the status register for IRQ output */
 169:.\Generated_Source\PSoC5/EN_A_PWM.c ****             EN_A_PWM_STATUS_AUX_CTRL |= EN_A_PWM_STATUS_ACTL_INT_EN_MASK;
 170:.\Generated_Source\PSoC5/EN_A_PWM.c **** 
 171:.\Generated_Source\PSoC5/EN_A_PWM.c ****              /* Exit Critical Region*/
 172:.\Generated_Source\PSoC5/EN_A_PWM.c ****             CyExitCriticalSection(EN_A_PWM_interruptState);
 173:.\Generated_Source\PSoC5/EN_A_PWM.c **** 
 174:.\Generated_Source\PSoC5/EN_A_PWM.c ****             /* Clear the FIFO to enable the EN_A_PWM_STATUS_FIFOFULL
 175:.\Generated_Source\PSoC5/EN_A_PWM.c ****                    bit to be set on FIFO full. */
 176:.\Generated_Source\PSoC5/EN_A_PWM.c ****             EN_A_PWM_ClearFIFO();
 177:.\Generated_Source\PSoC5/EN_A_PWM.c ****         #endif /* (EN_A_PWM_UseStatus) */
 178:.\Generated_Source\PSoC5/EN_A_PWM.c ****     #endif /* (EN_A_PWM_UsingFixedFunction) */
 179:.\Generated_Source\PSoC5/EN_A_PWM.c **** }
 180:.\Generated_Source\PSoC5/EN_A_PWM.c **** 
 181:.\Generated_Source\PSoC5/EN_A_PWM.c **** 
 182:.\Generated_Source\PSoC5/EN_A_PWM.c **** /*******************************************************************************
 183:.\Generated_Source\PSoC5/EN_A_PWM.c **** * Function Name: EN_A_PWM_Enable
 184:.\Generated_Source\PSoC5/EN_A_PWM.c **** ********************************************************************************
 185:.\Generated_Source\PSoC5/EN_A_PWM.c **** *
 186:.\Generated_Source\PSoC5/EN_A_PWM.c **** * Summary:
 187:.\Generated_Source\PSoC5/EN_A_PWM.c **** *  Enables the PWM block operation
 188:.\Generated_Source\PSoC5/EN_A_PWM.c **** *
 189:.\Generated_Source\PSoC5/EN_A_PWM.c **** * Parameters:
 190:.\Generated_Source\PSoC5/EN_A_PWM.c **** *  None
 191:.\Generated_Source\PSoC5/EN_A_PWM.c **** *
 192:.\Generated_Source\PSoC5/EN_A_PWM.c **** * Return:
 193:.\Generated_Source\PSoC5/EN_A_PWM.c **** *  None
 194:.\Generated_Source\PSoC5/EN_A_PWM.c **** *
 195:.\Generated_Source\PSoC5/EN_A_PWM.c **** * Side Effects:
 196:.\Generated_Source\PSoC5/EN_A_PWM.c **** *  This works only if software enable mode is chosen
 197:.\Generated_Source\PSoC5/EN_A_PWM.c **** *
 198:.\Generated_Source\PSoC5/EN_A_PWM.c **** *******************************************************************************/
 199:.\Generated_Source\PSoC5/EN_A_PWM.c **** void EN_A_PWM_Enable(void) 
 200:.\Generated_Source\PSoC5/EN_A_PWM.c **** {
  27              		.loc 1 200 0
  28              		.cfi_startproc
ARM GAS  C:\Users\Jorden\AppData\Local\Temp\ccQcvMzj.s 			page 5


  29              		@ args = 0, pretend = 0, frame = 0
  30              		@ frame_needed = 0, uses_anonymous_args = 0
  31              		@ link register save eliminated.
  32 0000 7047     		bx	lr
  33              		.cfi_endproc
  34              	.LFE2:
  35              		.size	EN_A_PWM_Enable, .-EN_A_PWM_Enable
  36 0002 00BF     		.section	.text.EN_A_PWM_Stop,"ax",%progbits
  37              		.align	2
  38              		.global	EN_A_PWM_Stop
  39              		.thumb
  40              		.thumb_func
  41              		.type	EN_A_PWM_Stop, %function
  42              	EN_A_PWM_Stop:
  43              	.LFB3:
 201:.\Generated_Source\PSoC5/EN_A_PWM.c ****     /* Globally Enable the Fixed Function Block chosen */
 202:.\Generated_Source\PSoC5/EN_A_PWM.c ****     #if (EN_A_PWM_UsingFixedFunction)
 203:.\Generated_Source\PSoC5/EN_A_PWM.c ****         EN_A_PWM_GLOBAL_ENABLE |= EN_A_PWM_BLOCK_EN_MASK;
 204:.\Generated_Source\PSoC5/EN_A_PWM.c ****         EN_A_PWM_GLOBAL_STBY_ENABLE |= EN_A_PWM_BLOCK_STBY_EN_MASK;
 205:.\Generated_Source\PSoC5/EN_A_PWM.c ****     #endif /* (EN_A_PWM_UsingFixedFunction) */
 206:.\Generated_Source\PSoC5/EN_A_PWM.c **** 
 207:.\Generated_Source\PSoC5/EN_A_PWM.c ****     /* Enable the PWM from the control register  */
 208:.\Generated_Source\PSoC5/EN_A_PWM.c ****     #if (EN_A_PWM_UseControl || EN_A_PWM_UsingFixedFunction)
 209:.\Generated_Source\PSoC5/EN_A_PWM.c ****         EN_A_PWM_CONTROL |= EN_A_PWM_CTRL_ENABLE;
 210:.\Generated_Source\PSoC5/EN_A_PWM.c ****     #endif /* (EN_A_PWM_UseControl || EN_A_PWM_UsingFixedFunction) */
 211:.\Generated_Source\PSoC5/EN_A_PWM.c **** }
 212:.\Generated_Source\PSoC5/EN_A_PWM.c **** 
 213:.\Generated_Source\PSoC5/EN_A_PWM.c **** 
 214:.\Generated_Source\PSoC5/EN_A_PWM.c **** /*******************************************************************************
 215:.\Generated_Source\PSoC5/EN_A_PWM.c **** * Function Name: EN_A_PWM_Stop
 216:.\Generated_Source\PSoC5/EN_A_PWM.c **** ********************************************************************************
 217:.\Generated_Source\PSoC5/EN_A_PWM.c **** *
 218:.\Generated_Source\PSoC5/EN_A_PWM.c **** * Summary:
 219:.\Generated_Source\PSoC5/EN_A_PWM.c **** *  The stop function halts the PWM, but does not change any modes or disable
 220:.\Generated_Source\PSoC5/EN_A_PWM.c **** *  interrupts.
 221:.\Generated_Source\PSoC5/EN_A_PWM.c **** *
 222:.\Generated_Source\PSoC5/EN_A_PWM.c **** * Parameters:
 223:.\Generated_Source\PSoC5/EN_A_PWM.c **** *  None
 224:.\Generated_Source\PSoC5/EN_A_PWM.c **** *
 225:.\Generated_Source\PSoC5/EN_A_PWM.c **** * Return:
 226:.\Generated_Source\PSoC5/EN_A_PWM.c **** *  None
 227:.\Generated_Source\PSoC5/EN_A_PWM.c **** *
 228:.\Generated_Source\PSoC5/EN_A_PWM.c **** * Side Effects:
 229:.\Generated_Source\PSoC5/EN_A_PWM.c **** *  If the Enable mode is set to Hardware only then this function
 230:.\Generated_Source\PSoC5/EN_A_PWM.c **** *  has no effect on the operation of the PWM
 231:.\Generated_Source\PSoC5/EN_A_PWM.c **** *
 232:.\Generated_Source\PSoC5/EN_A_PWM.c **** *******************************************************************************/
 233:.\Generated_Source\PSoC5/EN_A_PWM.c **** void EN_A_PWM_Stop(void) 
 234:.\Generated_Source\PSoC5/EN_A_PWM.c **** {
  44              		.loc 1 234 0
  45              		.cfi_startproc
  46              		@ args = 0, pretend = 0, frame = 0
  47              		@ frame_needed = 0, uses_anonymous_args = 0
  48              		@ link register save eliminated.
  49 0000 7047     		bx	lr
  50              		.cfi_endproc
  51              	.LFE3:
ARM GAS  C:\Users\Jorden\AppData\Local\Temp\ccQcvMzj.s 			page 6


  52              		.size	EN_A_PWM_Stop, .-EN_A_PWM_Stop
  53 0002 00BF     		.section	.text.EN_A_PWM_WriteCounter,"ax",%progbits
  54              		.align	2
  55              		.global	EN_A_PWM_WriteCounter
  56              		.thumb
  57              		.thumb_func
  58              		.type	EN_A_PWM_WriteCounter, %function
  59              	EN_A_PWM_WriteCounter:
  60              	.LFB4:
 235:.\Generated_Source\PSoC5/EN_A_PWM.c ****     #if (EN_A_PWM_UseControl || EN_A_PWM_UsingFixedFunction)
 236:.\Generated_Source\PSoC5/EN_A_PWM.c ****         EN_A_PWM_CONTROL &= ((uint8)(~EN_A_PWM_CTRL_ENABLE));
 237:.\Generated_Source\PSoC5/EN_A_PWM.c ****     #endif /* (EN_A_PWM_UseControl || EN_A_PWM_UsingFixedFunction) */
 238:.\Generated_Source\PSoC5/EN_A_PWM.c **** 
 239:.\Generated_Source\PSoC5/EN_A_PWM.c ****     /* Globally disable the Fixed Function Block chosen */
 240:.\Generated_Source\PSoC5/EN_A_PWM.c ****     #if (EN_A_PWM_UsingFixedFunction)
 241:.\Generated_Source\PSoC5/EN_A_PWM.c ****         EN_A_PWM_GLOBAL_ENABLE &= ((uint8)(~EN_A_PWM_BLOCK_EN_MASK));
 242:.\Generated_Source\PSoC5/EN_A_PWM.c ****         EN_A_PWM_GLOBAL_STBY_ENABLE &= ((uint8)(~EN_A_PWM_BLOCK_STBY_EN_MASK));
 243:.\Generated_Source\PSoC5/EN_A_PWM.c ****     #endif /* (EN_A_PWM_UsingFixedFunction) */
 244:.\Generated_Source\PSoC5/EN_A_PWM.c **** }
 245:.\Generated_Source\PSoC5/EN_A_PWM.c **** 
 246:.\Generated_Source\PSoC5/EN_A_PWM.c **** #if (EN_A_PWM_UseOneCompareMode)
 247:.\Generated_Source\PSoC5/EN_A_PWM.c ****     #if (EN_A_PWM_CompareMode1SW)
 248:.\Generated_Source\PSoC5/EN_A_PWM.c **** 
 249:.\Generated_Source\PSoC5/EN_A_PWM.c **** 
 250:.\Generated_Source\PSoC5/EN_A_PWM.c ****         /*******************************************************************************
 251:.\Generated_Source\PSoC5/EN_A_PWM.c ****         * Function Name: EN_A_PWM_SetCompareMode
 252:.\Generated_Source\PSoC5/EN_A_PWM.c ****         ********************************************************************************
 253:.\Generated_Source\PSoC5/EN_A_PWM.c ****         *
 254:.\Generated_Source\PSoC5/EN_A_PWM.c ****         * Summary:
 255:.\Generated_Source\PSoC5/EN_A_PWM.c ****         *  This function writes the Compare Mode for the pwm output when in Dither mode,
 256:.\Generated_Source\PSoC5/EN_A_PWM.c ****         *  Center Align Mode or One Output Mode.
 257:.\Generated_Source\PSoC5/EN_A_PWM.c ****         *
 258:.\Generated_Source\PSoC5/EN_A_PWM.c ****         * Parameters:
 259:.\Generated_Source\PSoC5/EN_A_PWM.c ****         *  comparemode:  The new compare mode for the PWM output. Use the compare types
 260:.\Generated_Source\PSoC5/EN_A_PWM.c ****         *                defined in the H file as input arguments.
 261:.\Generated_Source\PSoC5/EN_A_PWM.c ****         *
 262:.\Generated_Source\PSoC5/EN_A_PWM.c ****         * Return:
 263:.\Generated_Source\PSoC5/EN_A_PWM.c ****         *  None
 264:.\Generated_Source\PSoC5/EN_A_PWM.c ****         *
 265:.\Generated_Source\PSoC5/EN_A_PWM.c ****         *******************************************************************************/
 266:.\Generated_Source\PSoC5/EN_A_PWM.c ****         void EN_A_PWM_SetCompareMode(uint8 comparemode) 
 267:.\Generated_Source\PSoC5/EN_A_PWM.c ****         {
 268:.\Generated_Source\PSoC5/EN_A_PWM.c ****             #if(EN_A_PWM_UsingFixedFunction)
 269:.\Generated_Source\PSoC5/EN_A_PWM.c **** 
 270:.\Generated_Source\PSoC5/EN_A_PWM.c ****                 #if(0 != EN_A_PWM_CTRL_CMPMODE1_SHIFT)
 271:.\Generated_Source\PSoC5/EN_A_PWM.c ****                     uint8 comparemodemasked = ((uint8)((uint8)comparemode << EN_A_PWM_CTRL_CMPMODE1
 272:.\Generated_Source\PSoC5/EN_A_PWM.c ****                 #else
 273:.\Generated_Source\PSoC5/EN_A_PWM.c ****                     uint8 comparemodemasked = comparemode;
 274:.\Generated_Source\PSoC5/EN_A_PWM.c ****                 #endif /* (0 != EN_A_PWM_CTRL_CMPMODE1_SHIFT) */
 275:.\Generated_Source\PSoC5/EN_A_PWM.c **** 
 276:.\Generated_Source\PSoC5/EN_A_PWM.c ****                 EN_A_PWM_CONTROL3 &= ((uint8)(~EN_A_PWM_CTRL_CMPMODE1_MASK)); /*Clear Existing Data
 277:.\Generated_Source\PSoC5/EN_A_PWM.c ****                 EN_A_PWM_CONTROL3 |= comparemodemasked;
 278:.\Generated_Source\PSoC5/EN_A_PWM.c **** 
 279:.\Generated_Source\PSoC5/EN_A_PWM.c ****             #elif (EN_A_PWM_UseControl)
 280:.\Generated_Source\PSoC5/EN_A_PWM.c **** 
 281:.\Generated_Source\PSoC5/EN_A_PWM.c ****                 #if(0 != EN_A_PWM_CTRL_CMPMODE1_SHIFT)
 282:.\Generated_Source\PSoC5/EN_A_PWM.c ****                     uint8 comparemode1masked = ((uint8)((uint8)comparemode << EN_A_PWM_CTRL_CMPMODE
ARM GAS  C:\Users\Jorden\AppData\Local\Temp\ccQcvMzj.s 			page 7


 283:.\Generated_Source\PSoC5/EN_A_PWM.c ****                                                 EN_A_PWM_CTRL_CMPMODE1_MASK;
 284:.\Generated_Source\PSoC5/EN_A_PWM.c ****                 #else
 285:.\Generated_Source\PSoC5/EN_A_PWM.c ****                     uint8 comparemode1masked = comparemode & EN_A_PWM_CTRL_CMPMODE1_MASK;
 286:.\Generated_Source\PSoC5/EN_A_PWM.c ****                 #endif /* (0 != EN_A_PWM_CTRL_CMPMODE1_SHIFT) */
 287:.\Generated_Source\PSoC5/EN_A_PWM.c **** 
 288:.\Generated_Source\PSoC5/EN_A_PWM.c ****                 #if(0 != EN_A_PWM_CTRL_CMPMODE2_SHIFT)
 289:.\Generated_Source\PSoC5/EN_A_PWM.c ****                     uint8 comparemode2masked = ((uint8)((uint8)comparemode << EN_A_PWM_CTRL_CMPMODE
 290:.\Generated_Source\PSoC5/EN_A_PWM.c ****                                                EN_A_PWM_CTRL_CMPMODE2_MASK;
 291:.\Generated_Source\PSoC5/EN_A_PWM.c ****                 #else
 292:.\Generated_Source\PSoC5/EN_A_PWM.c ****                     uint8 comparemode2masked = comparemode & EN_A_PWM_CTRL_CMPMODE2_MASK;
 293:.\Generated_Source\PSoC5/EN_A_PWM.c ****                 #endif /* (0 != EN_A_PWM_CTRL_CMPMODE2_SHIFT) */
 294:.\Generated_Source\PSoC5/EN_A_PWM.c **** 
 295:.\Generated_Source\PSoC5/EN_A_PWM.c ****                 /*Clear existing mode */
 296:.\Generated_Source\PSoC5/EN_A_PWM.c ****                 EN_A_PWM_CONTROL &= ((uint8)(~(EN_A_PWM_CTRL_CMPMODE1_MASK |
 297:.\Generated_Source\PSoC5/EN_A_PWM.c ****                                             EN_A_PWM_CTRL_CMPMODE2_MASK)));
 298:.\Generated_Source\PSoC5/EN_A_PWM.c ****                 EN_A_PWM_CONTROL |= (comparemode1masked | comparemode2masked);
 299:.\Generated_Source\PSoC5/EN_A_PWM.c **** 
 300:.\Generated_Source\PSoC5/EN_A_PWM.c ****             #else
 301:.\Generated_Source\PSoC5/EN_A_PWM.c ****                 uint8 temp = comparemode;
 302:.\Generated_Source\PSoC5/EN_A_PWM.c ****             #endif /* (EN_A_PWM_UsingFixedFunction) */
 303:.\Generated_Source\PSoC5/EN_A_PWM.c ****         }
 304:.\Generated_Source\PSoC5/EN_A_PWM.c ****     #endif /* EN_A_PWM_CompareMode1SW */
 305:.\Generated_Source\PSoC5/EN_A_PWM.c **** 
 306:.\Generated_Source\PSoC5/EN_A_PWM.c **** #else /* UseOneCompareMode */
 307:.\Generated_Source\PSoC5/EN_A_PWM.c **** 
 308:.\Generated_Source\PSoC5/EN_A_PWM.c ****     #if (EN_A_PWM_CompareMode1SW)
 309:.\Generated_Source\PSoC5/EN_A_PWM.c **** 
 310:.\Generated_Source\PSoC5/EN_A_PWM.c **** 
 311:.\Generated_Source\PSoC5/EN_A_PWM.c ****         /*******************************************************************************
 312:.\Generated_Source\PSoC5/EN_A_PWM.c ****         * Function Name: EN_A_PWM_SetCompareMode1
 313:.\Generated_Source\PSoC5/EN_A_PWM.c ****         ********************************************************************************
 314:.\Generated_Source\PSoC5/EN_A_PWM.c ****         *
 315:.\Generated_Source\PSoC5/EN_A_PWM.c ****         * Summary:
 316:.\Generated_Source\PSoC5/EN_A_PWM.c ****         *  This function writes the Compare Mode for the pwm or pwm1 output
 317:.\Generated_Source\PSoC5/EN_A_PWM.c ****         *
 318:.\Generated_Source\PSoC5/EN_A_PWM.c ****         * Parameters:
 319:.\Generated_Source\PSoC5/EN_A_PWM.c ****         *  comparemode:  The new compare mode for the PWM output. Use the compare types
 320:.\Generated_Source\PSoC5/EN_A_PWM.c ****         *                defined in the H file as input arguments.
 321:.\Generated_Source\PSoC5/EN_A_PWM.c ****         *
 322:.\Generated_Source\PSoC5/EN_A_PWM.c ****         * Return:
 323:.\Generated_Source\PSoC5/EN_A_PWM.c ****         *  None
 324:.\Generated_Source\PSoC5/EN_A_PWM.c ****         *
 325:.\Generated_Source\PSoC5/EN_A_PWM.c ****         *******************************************************************************/
 326:.\Generated_Source\PSoC5/EN_A_PWM.c ****         void EN_A_PWM_SetCompareMode1(uint8 comparemode) 
 327:.\Generated_Source\PSoC5/EN_A_PWM.c ****         {
 328:.\Generated_Source\PSoC5/EN_A_PWM.c ****             #if(0 != EN_A_PWM_CTRL_CMPMODE1_SHIFT)
 329:.\Generated_Source\PSoC5/EN_A_PWM.c ****                 uint8 comparemodemasked = ((uint8)((uint8)comparemode << EN_A_PWM_CTRL_CMPMODE1_SHI
 330:.\Generated_Source\PSoC5/EN_A_PWM.c ****                                            EN_A_PWM_CTRL_CMPMODE1_MASK;
 331:.\Generated_Source\PSoC5/EN_A_PWM.c ****             #else
 332:.\Generated_Source\PSoC5/EN_A_PWM.c ****                 uint8 comparemodemasked = comparemode & EN_A_PWM_CTRL_CMPMODE1_MASK;
 333:.\Generated_Source\PSoC5/EN_A_PWM.c ****             #endif /* (0 != EN_A_PWM_CTRL_CMPMODE1_SHIFT) */
 334:.\Generated_Source\PSoC5/EN_A_PWM.c **** 
 335:.\Generated_Source\PSoC5/EN_A_PWM.c ****             #if (EN_A_PWM_UseControl)
 336:.\Generated_Source\PSoC5/EN_A_PWM.c ****                 EN_A_PWM_CONTROL &= ((uint8)(~EN_A_PWM_CTRL_CMPMODE1_MASK)); /*Clear existing mode 
 337:.\Generated_Source\PSoC5/EN_A_PWM.c ****                 EN_A_PWM_CONTROL |= comparemodemasked;
 338:.\Generated_Source\PSoC5/EN_A_PWM.c ****             #endif /* (EN_A_PWM_UseControl) */
 339:.\Generated_Source\PSoC5/EN_A_PWM.c ****         }
ARM GAS  C:\Users\Jorden\AppData\Local\Temp\ccQcvMzj.s 			page 8


 340:.\Generated_Source\PSoC5/EN_A_PWM.c ****     #endif /* EN_A_PWM_CompareMode1SW */
 341:.\Generated_Source\PSoC5/EN_A_PWM.c **** 
 342:.\Generated_Source\PSoC5/EN_A_PWM.c **** #if (EN_A_PWM_CompareMode2SW)
 343:.\Generated_Source\PSoC5/EN_A_PWM.c **** 
 344:.\Generated_Source\PSoC5/EN_A_PWM.c **** 
 345:.\Generated_Source\PSoC5/EN_A_PWM.c ****     /*******************************************************************************
 346:.\Generated_Source\PSoC5/EN_A_PWM.c ****     * Function Name: EN_A_PWM_SetCompareMode2
 347:.\Generated_Source\PSoC5/EN_A_PWM.c ****     ********************************************************************************
 348:.\Generated_Source\PSoC5/EN_A_PWM.c ****     *
 349:.\Generated_Source\PSoC5/EN_A_PWM.c ****     * Summary:
 350:.\Generated_Source\PSoC5/EN_A_PWM.c ****     *  This function writes the Compare Mode for the pwm or pwm2 output
 351:.\Generated_Source\PSoC5/EN_A_PWM.c ****     *
 352:.\Generated_Source\PSoC5/EN_A_PWM.c ****     * Parameters:
 353:.\Generated_Source\PSoC5/EN_A_PWM.c ****     *  comparemode:  The new compare mode for the PWM output. Use the compare types
 354:.\Generated_Source\PSoC5/EN_A_PWM.c ****     *                defined in the H file as input arguments.
 355:.\Generated_Source\PSoC5/EN_A_PWM.c ****     *
 356:.\Generated_Source\PSoC5/EN_A_PWM.c ****     * Return:
 357:.\Generated_Source\PSoC5/EN_A_PWM.c ****     *  None
 358:.\Generated_Source\PSoC5/EN_A_PWM.c ****     *
 359:.\Generated_Source\PSoC5/EN_A_PWM.c ****     *******************************************************************************/
 360:.\Generated_Source\PSoC5/EN_A_PWM.c ****     void EN_A_PWM_SetCompareMode2(uint8 comparemode) 
 361:.\Generated_Source\PSoC5/EN_A_PWM.c ****     {
 362:.\Generated_Source\PSoC5/EN_A_PWM.c **** 
 363:.\Generated_Source\PSoC5/EN_A_PWM.c ****         #if(0 != EN_A_PWM_CTRL_CMPMODE2_SHIFT)
 364:.\Generated_Source\PSoC5/EN_A_PWM.c ****             uint8 comparemodemasked = ((uint8)((uint8)comparemode << EN_A_PWM_CTRL_CMPMODE2_SHIFT))
 365:.\Generated_Source\PSoC5/EN_A_PWM.c ****                                                  EN_A_PWM_CTRL_CMPMODE2_MASK;
 366:.\Generated_Source\PSoC5/EN_A_PWM.c ****         #else
 367:.\Generated_Source\PSoC5/EN_A_PWM.c ****             uint8 comparemodemasked = comparemode & EN_A_PWM_CTRL_CMPMODE2_MASK;
 368:.\Generated_Source\PSoC5/EN_A_PWM.c ****         #endif /* (0 != EN_A_PWM_CTRL_CMPMODE2_SHIFT) */
 369:.\Generated_Source\PSoC5/EN_A_PWM.c **** 
 370:.\Generated_Source\PSoC5/EN_A_PWM.c ****         #if (EN_A_PWM_UseControl)
 371:.\Generated_Source\PSoC5/EN_A_PWM.c ****             EN_A_PWM_CONTROL &= ((uint8)(~EN_A_PWM_CTRL_CMPMODE2_MASK)); /*Clear existing mode */
 372:.\Generated_Source\PSoC5/EN_A_PWM.c ****             EN_A_PWM_CONTROL |= comparemodemasked;
 373:.\Generated_Source\PSoC5/EN_A_PWM.c ****         #endif /* (EN_A_PWM_UseControl) */
 374:.\Generated_Source\PSoC5/EN_A_PWM.c ****     }
 375:.\Generated_Source\PSoC5/EN_A_PWM.c ****     #endif /*EN_A_PWM_CompareMode2SW */
 376:.\Generated_Source\PSoC5/EN_A_PWM.c **** 
 377:.\Generated_Source\PSoC5/EN_A_PWM.c **** #endif /* UseOneCompareMode */
 378:.\Generated_Source\PSoC5/EN_A_PWM.c **** 
 379:.\Generated_Source\PSoC5/EN_A_PWM.c **** 
 380:.\Generated_Source\PSoC5/EN_A_PWM.c **** #if (!EN_A_PWM_UsingFixedFunction)
 381:.\Generated_Source\PSoC5/EN_A_PWM.c **** 
 382:.\Generated_Source\PSoC5/EN_A_PWM.c **** 
 383:.\Generated_Source\PSoC5/EN_A_PWM.c ****     /*******************************************************************************
 384:.\Generated_Source\PSoC5/EN_A_PWM.c ****     * Function Name: EN_A_PWM_WriteCounter
 385:.\Generated_Source\PSoC5/EN_A_PWM.c ****     ********************************************************************************
 386:.\Generated_Source\PSoC5/EN_A_PWM.c ****     *
 387:.\Generated_Source\PSoC5/EN_A_PWM.c ****     * Summary:
 388:.\Generated_Source\PSoC5/EN_A_PWM.c ****     *  Writes a new counter value directly to the counter register. This will be
 389:.\Generated_Source\PSoC5/EN_A_PWM.c ****     *  implemented for that currently running period and only that period. This API
 390:.\Generated_Source\PSoC5/EN_A_PWM.c ****     *  is valid only for UDB implementation and not available for fixed function
 391:.\Generated_Source\PSoC5/EN_A_PWM.c ****     *  PWM implementation.
 392:.\Generated_Source\PSoC5/EN_A_PWM.c ****     *
 393:.\Generated_Source\PSoC5/EN_A_PWM.c ****     * Parameters:
 394:.\Generated_Source\PSoC5/EN_A_PWM.c ****     *  counter:  The period new period counter value.
 395:.\Generated_Source\PSoC5/EN_A_PWM.c ****     *
 396:.\Generated_Source\PSoC5/EN_A_PWM.c ****     * Return:
ARM GAS  C:\Users\Jorden\AppData\Local\Temp\ccQcvMzj.s 			page 9


 397:.\Generated_Source\PSoC5/EN_A_PWM.c ****     *  None
 398:.\Generated_Source\PSoC5/EN_A_PWM.c ****     *
 399:.\Generated_Source\PSoC5/EN_A_PWM.c ****     * Side Effects:
 400:.\Generated_Source\PSoC5/EN_A_PWM.c ****     *  The PWM Period will be reloaded when a counter value will be a zero
 401:.\Generated_Source\PSoC5/EN_A_PWM.c ****     *
 402:.\Generated_Source\PSoC5/EN_A_PWM.c ****     *******************************************************************************/
 403:.\Generated_Source\PSoC5/EN_A_PWM.c ****     void EN_A_PWM_WriteCounter(uint16 counter) \
 404:.\Generated_Source\PSoC5/EN_A_PWM.c ****                                        
 405:.\Generated_Source\PSoC5/EN_A_PWM.c ****     {
  61              		.loc 1 405 0
  62              		.cfi_startproc
  63              		@ args = 0, pretend = 0, frame = 0
  64              		@ frame_needed = 0, uses_anonymous_args = 0
  65              		@ link register save eliminated.
  66              	.LVL0:
 406:.\Generated_Source\PSoC5/EN_A_PWM.c ****         CY_SET_REG16(EN_A_PWM_COUNTER_LSB_PTR, counter);
  67              		.loc 1 406 0
  68 0000 014B     		ldr	r3, .L4
  69 0002 1880     		strh	r0, [r3]	@ movhi
  70 0004 7047     		bx	lr
  71              	.L5:
  72 0006 00BF     		.align	2
  73              	.L4:
  74 0008 12680040 		.word	1073768466
  75              		.cfi_endproc
  76              	.LFE4:
  77              		.size	EN_A_PWM_WriteCounter, .-EN_A_PWM_WriteCounter
  78              		.section	.text.EN_A_PWM_ReadCounter,"ax",%progbits
  79              		.align	2
  80              		.global	EN_A_PWM_ReadCounter
  81              		.thumb
  82              		.thumb_func
  83              		.type	EN_A_PWM_ReadCounter, %function
  84              	EN_A_PWM_ReadCounter:
  85              	.LFB5:
 407:.\Generated_Source\PSoC5/EN_A_PWM.c ****     }
 408:.\Generated_Source\PSoC5/EN_A_PWM.c **** 
 409:.\Generated_Source\PSoC5/EN_A_PWM.c **** 
 410:.\Generated_Source\PSoC5/EN_A_PWM.c ****     /*******************************************************************************
 411:.\Generated_Source\PSoC5/EN_A_PWM.c ****     * Function Name: EN_A_PWM_ReadCounter
 412:.\Generated_Source\PSoC5/EN_A_PWM.c ****     ********************************************************************************
 413:.\Generated_Source\PSoC5/EN_A_PWM.c ****     *
 414:.\Generated_Source\PSoC5/EN_A_PWM.c ****     * Summary:
 415:.\Generated_Source\PSoC5/EN_A_PWM.c ****     *  This function returns the current value of the counter.  It doesn't matter
 416:.\Generated_Source\PSoC5/EN_A_PWM.c ****     *  if the counter is enabled or running.
 417:.\Generated_Source\PSoC5/EN_A_PWM.c ****     *
 418:.\Generated_Source\PSoC5/EN_A_PWM.c ****     * Parameters:
 419:.\Generated_Source\PSoC5/EN_A_PWM.c ****     *  None
 420:.\Generated_Source\PSoC5/EN_A_PWM.c ****     *
 421:.\Generated_Source\PSoC5/EN_A_PWM.c ****     * Return:
 422:.\Generated_Source\PSoC5/EN_A_PWM.c ****     *  The current value of the counter.
 423:.\Generated_Source\PSoC5/EN_A_PWM.c ****     *
 424:.\Generated_Source\PSoC5/EN_A_PWM.c ****     *******************************************************************************/
 425:.\Generated_Source\PSoC5/EN_A_PWM.c ****     uint16 EN_A_PWM_ReadCounter(void) 
 426:.\Generated_Source\PSoC5/EN_A_PWM.c ****     {
  86              		.loc 1 426 0
  87              		.cfi_startproc
ARM GAS  C:\Users\Jorden\AppData\Local\Temp\ccQcvMzj.s 			page 10


  88              		@ args = 0, pretend = 0, frame = 0
  89              		@ frame_needed = 0, uses_anonymous_args = 0
  90              		@ link register save eliminated.
 427:.\Generated_Source\PSoC5/EN_A_PWM.c ****         /* Force capture by reading Accumulator */
 428:.\Generated_Source\PSoC5/EN_A_PWM.c ****         /* Must first do a software capture to be able to read the counter */
 429:.\Generated_Source\PSoC5/EN_A_PWM.c ****         /* It is up to the user code to make sure there isn't already captured data in the FIFO */
 430:.\Generated_Source\PSoC5/EN_A_PWM.c ****           (void)CY_GET_REG8(EN_A_PWM_COUNTERCAP_LSB_PTR_8BIT);
  91              		.loc 1 430 0
  92 0000 024B     		ldr	r3, .L7
  93 0002 1B78     		ldrb	r3, [r3]	@ zero_extendqisi2
 431:.\Generated_Source\PSoC5/EN_A_PWM.c **** 
 432:.\Generated_Source\PSoC5/EN_A_PWM.c ****         /* Read the data from the FIFO */
 433:.\Generated_Source\PSoC5/EN_A_PWM.c ****         return (CY_GET_REG16(EN_A_PWM_CAPTURE_LSB_PTR));
  94              		.loc 1 433 0
  95 0004 024B     		ldr	r3, .L7+4
  96 0006 1888     		ldrh	r0, [r3]
 434:.\Generated_Source\PSoC5/EN_A_PWM.c ****     }
  97              		.loc 1 434 0
  98 0008 80B2     		uxth	r0, r0
  99 000a 7047     		bx	lr
 100              	.L8:
 101              		.align	2
 102              	.L7:
 103 000c 19640040 		.word	1073767449
 104 0010 B2680040 		.word	1073768626
 105              		.cfi_endproc
 106              	.LFE5:
 107              		.size	EN_A_PWM_ReadCounter, .-EN_A_PWM_ReadCounter
 108              		.section	.text.EN_A_PWM_WritePeriod,"ax",%progbits
 109              		.align	2
 110              		.global	EN_A_PWM_WritePeriod
 111              		.thumb
 112              		.thumb_func
 113              		.type	EN_A_PWM_WritePeriod, %function
 114              	EN_A_PWM_WritePeriod:
 115              	.LFB7:
 435:.\Generated_Source\PSoC5/EN_A_PWM.c **** 
 436:.\Generated_Source\PSoC5/EN_A_PWM.c ****     #if (EN_A_PWM_UseStatus)
 437:.\Generated_Source\PSoC5/EN_A_PWM.c **** 
 438:.\Generated_Source\PSoC5/EN_A_PWM.c **** 
 439:.\Generated_Source\PSoC5/EN_A_PWM.c ****         /*******************************************************************************
 440:.\Generated_Source\PSoC5/EN_A_PWM.c ****         * Function Name: EN_A_PWM_ClearFIFO
 441:.\Generated_Source\PSoC5/EN_A_PWM.c ****         ********************************************************************************
 442:.\Generated_Source\PSoC5/EN_A_PWM.c ****         *
 443:.\Generated_Source\PSoC5/EN_A_PWM.c ****         * Summary:
 444:.\Generated_Source\PSoC5/EN_A_PWM.c ****         *  This function clears all capture data from the capture FIFO
 445:.\Generated_Source\PSoC5/EN_A_PWM.c ****         *
 446:.\Generated_Source\PSoC5/EN_A_PWM.c ****         * Parameters:
 447:.\Generated_Source\PSoC5/EN_A_PWM.c ****         *  None
 448:.\Generated_Source\PSoC5/EN_A_PWM.c ****         *
 449:.\Generated_Source\PSoC5/EN_A_PWM.c ****         * Return:
 450:.\Generated_Source\PSoC5/EN_A_PWM.c ****         *  None
 451:.\Generated_Source\PSoC5/EN_A_PWM.c ****         *
 452:.\Generated_Source\PSoC5/EN_A_PWM.c ****         *******************************************************************************/
 453:.\Generated_Source\PSoC5/EN_A_PWM.c ****         void EN_A_PWM_ClearFIFO(void) 
 454:.\Generated_Source\PSoC5/EN_A_PWM.c ****         {
 455:.\Generated_Source\PSoC5/EN_A_PWM.c ****             while(0u != (EN_A_PWM_ReadStatusRegister() & EN_A_PWM_STATUS_FIFONEMPTY))
ARM GAS  C:\Users\Jorden\AppData\Local\Temp\ccQcvMzj.s 			page 11


 456:.\Generated_Source\PSoC5/EN_A_PWM.c ****             {
 457:.\Generated_Source\PSoC5/EN_A_PWM.c ****                 (void)EN_A_PWM_ReadCapture();
 458:.\Generated_Source\PSoC5/EN_A_PWM.c ****             }
 459:.\Generated_Source\PSoC5/EN_A_PWM.c ****         }
 460:.\Generated_Source\PSoC5/EN_A_PWM.c **** 
 461:.\Generated_Source\PSoC5/EN_A_PWM.c ****     #endif /* EN_A_PWM_UseStatus */
 462:.\Generated_Source\PSoC5/EN_A_PWM.c **** 
 463:.\Generated_Source\PSoC5/EN_A_PWM.c **** #endif /* !EN_A_PWM_UsingFixedFunction */
 464:.\Generated_Source\PSoC5/EN_A_PWM.c **** 
 465:.\Generated_Source\PSoC5/EN_A_PWM.c **** 
 466:.\Generated_Source\PSoC5/EN_A_PWM.c **** /*******************************************************************************
 467:.\Generated_Source\PSoC5/EN_A_PWM.c **** * Function Name: EN_A_PWM_WritePeriod
 468:.\Generated_Source\PSoC5/EN_A_PWM.c **** ********************************************************************************
 469:.\Generated_Source\PSoC5/EN_A_PWM.c **** *
 470:.\Generated_Source\PSoC5/EN_A_PWM.c **** * Summary:
 471:.\Generated_Source\PSoC5/EN_A_PWM.c **** *  This function is used to change the period of the counter.  The new period
 472:.\Generated_Source\PSoC5/EN_A_PWM.c **** *  will be loaded the next time terminal count is detected.
 473:.\Generated_Source\PSoC5/EN_A_PWM.c **** *
 474:.\Generated_Source\PSoC5/EN_A_PWM.c **** * Parameters:
 475:.\Generated_Source\PSoC5/EN_A_PWM.c **** *  period:  Period value. May be between 1 and (2^Resolution)-1.  A value of 0
 476:.\Generated_Source\PSoC5/EN_A_PWM.c **** *           will result in the counter remaining at zero.
 477:.\Generated_Source\PSoC5/EN_A_PWM.c **** *
 478:.\Generated_Source\PSoC5/EN_A_PWM.c **** * Return:
 479:.\Generated_Source\PSoC5/EN_A_PWM.c **** *  None
 480:.\Generated_Source\PSoC5/EN_A_PWM.c **** *
 481:.\Generated_Source\PSoC5/EN_A_PWM.c **** *******************************************************************************/
 482:.\Generated_Source\PSoC5/EN_A_PWM.c **** void EN_A_PWM_WritePeriod(uint16 period) 
 483:.\Generated_Source\PSoC5/EN_A_PWM.c **** {
 116              		.loc 1 483 0
 117              		.cfi_startproc
 118              		@ args = 0, pretend = 0, frame = 0
 119              		@ frame_needed = 0, uses_anonymous_args = 0
 120              		@ link register save eliminated.
 121              	.LVL1:
 484:.\Generated_Source\PSoC5/EN_A_PWM.c ****     #if(EN_A_PWM_UsingFixedFunction)
 485:.\Generated_Source\PSoC5/EN_A_PWM.c ****         CY_SET_REG16(EN_A_PWM_PERIOD_LSB_PTR, (uint16)period);
 486:.\Generated_Source\PSoC5/EN_A_PWM.c ****     #else
 487:.\Generated_Source\PSoC5/EN_A_PWM.c ****         CY_SET_REG16(EN_A_PWM_PERIOD_LSB_PTR, period);
 122              		.loc 1 487 0
 123 0000 014B     		ldr	r3, .L10
 124 0002 1880     		strh	r0, [r3]	@ movhi
 125 0004 7047     		bx	lr
 126              	.L11:
 127 0006 00BF     		.align	2
 128              	.L10:
 129 0008 92680040 		.word	1073768594
 130              		.cfi_endproc
 131              	.LFE7:
 132              		.size	EN_A_PWM_WritePeriod, .-EN_A_PWM_WritePeriod
 133              		.section	.text.EN_A_PWM_WriteCompare,"ax",%progbits
 134              		.align	2
 135              		.global	EN_A_PWM_WriteCompare
 136              		.thumb
 137              		.thumb_func
 138              		.type	EN_A_PWM_WriteCompare, %function
 139              	EN_A_PWM_WriteCompare:
 140              	.LFB8:
ARM GAS  C:\Users\Jorden\AppData\Local\Temp\ccQcvMzj.s 			page 12


 488:.\Generated_Source\PSoC5/EN_A_PWM.c ****     #endif /* (EN_A_PWM_UsingFixedFunction) */
 489:.\Generated_Source\PSoC5/EN_A_PWM.c **** }
 490:.\Generated_Source\PSoC5/EN_A_PWM.c **** 
 491:.\Generated_Source\PSoC5/EN_A_PWM.c **** #if (EN_A_PWM_UseOneCompareMode)
 492:.\Generated_Source\PSoC5/EN_A_PWM.c **** 
 493:.\Generated_Source\PSoC5/EN_A_PWM.c **** 
 494:.\Generated_Source\PSoC5/EN_A_PWM.c ****     /*******************************************************************************
 495:.\Generated_Source\PSoC5/EN_A_PWM.c ****     * Function Name: EN_A_PWM_WriteCompare
 496:.\Generated_Source\PSoC5/EN_A_PWM.c ****     ********************************************************************************
 497:.\Generated_Source\PSoC5/EN_A_PWM.c ****     *
 498:.\Generated_Source\PSoC5/EN_A_PWM.c ****     * Summary:
 499:.\Generated_Source\PSoC5/EN_A_PWM.c ****     *  This funtion is used to change the compare1 value when the PWM is in Dither
 500:.\Generated_Source\PSoC5/EN_A_PWM.c ****     *  mode. The compare output will reflect the new value on the next UDB clock.
 501:.\Generated_Source\PSoC5/EN_A_PWM.c ****     *  The compare output will be driven high when the present counter value is
 502:.\Generated_Source\PSoC5/EN_A_PWM.c ****     *  compared to the compare value based on the compare mode defined in
 503:.\Generated_Source\PSoC5/EN_A_PWM.c ****     *  Dither Mode.
 504:.\Generated_Source\PSoC5/EN_A_PWM.c ****     *
 505:.\Generated_Source\PSoC5/EN_A_PWM.c ****     * Parameters:
 506:.\Generated_Source\PSoC5/EN_A_PWM.c ****     *  compare:  New compare value.
 507:.\Generated_Source\PSoC5/EN_A_PWM.c ****     *
 508:.\Generated_Source\PSoC5/EN_A_PWM.c ****     * Return:
 509:.\Generated_Source\PSoC5/EN_A_PWM.c ****     *  None
 510:.\Generated_Source\PSoC5/EN_A_PWM.c ****     *
 511:.\Generated_Source\PSoC5/EN_A_PWM.c ****     * Side Effects:
 512:.\Generated_Source\PSoC5/EN_A_PWM.c ****     *  This function is only available if the PWM mode parameter is set to
 513:.\Generated_Source\PSoC5/EN_A_PWM.c ****     *  Dither Mode, Center Aligned Mode or One Output Mode
 514:.\Generated_Source\PSoC5/EN_A_PWM.c ****     *
 515:.\Generated_Source\PSoC5/EN_A_PWM.c ****     *******************************************************************************/
 516:.\Generated_Source\PSoC5/EN_A_PWM.c ****     void EN_A_PWM_WriteCompare(uint16 compare) \
 517:.\Generated_Source\PSoC5/EN_A_PWM.c ****                                        
 518:.\Generated_Source\PSoC5/EN_A_PWM.c ****     {
 141              		.loc 1 518 0
 142              		.cfi_startproc
 143              		@ args = 0, pretend = 0, frame = 0
 144              		@ frame_needed = 0, uses_anonymous_args = 0
 145              		@ link register save eliminated.
 146              	.LVL2:
 519:.\Generated_Source\PSoC5/EN_A_PWM.c ****         #if(EN_A_PWM_UsingFixedFunction)
 520:.\Generated_Source\PSoC5/EN_A_PWM.c ****             CY_SET_REG16(EN_A_PWM_COMPARE1_LSB_PTR, (uint16)compare);
 521:.\Generated_Source\PSoC5/EN_A_PWM.c ****         #else
 522:.\Generated_Source\PSoC5/EN_A_PWM.c ****             CY_SET_REG16(EN_A_PWM_COMPARE1_LSB_PTR, compare);
 147              		.loc 1 522 0
 148 0000 014B     		ldr	r3, .L13
 149 0002 1880     		strh	r0, [r3]	@ movhi
 150 0004 7047     		bx	lr
 151              	.L14:
 152 0006 00BF     		.align	2
 153              	.L13:
 154 0008 52680040 		.word	1073768530
 155              		.cfi_endproc
 156              	.LFE8:
 157              		.size	EN_A_PWM_WriteCompare, .-EN_A_PWM_WriteCompare
 158              		.section	.text.EN_A_PWM_SetInterruptMode,"ax",%progbits
 159              		.align	2
 160              		.global	EN_A_PWM_SetInterruptMode
 161              		.thumb
 162              		.thumb_func
ARM GAS  C:\Users\Jorden\AppData\Local\Temp\ccQcvMzj.s 			page 13


 163              		.type	EN_A_PWM_SetInterruptMode, %function
 164              	EN_A_PWM_SetInterruptMode:
 165              	.LFB9:
 523:.\Generated_Source\PSoC5/EN_A_PWM.c ****         #endif /* (EN_A_PWM_UsingFixedFunction) */
 524:.\Generated_Source\PSoC5/EN_A_PWM.c **** 
 525:.\Generated_Source\PSoC5/EN_A_PWM.c ****         #if (EN_A_PWM_PWMMode == EN_A_PWM__B_PWM__DITHER)
 526:.\Generated_Source\PSoC5/EN_A_PWM.c ****             #if(EN_A_PWM_UsingFixedFunction)
 527:.\Generated_Source\PSoC5/EN_A_PWM.c ****                 CY_SET_REG16(EN_A_PWM_COMPARE2_LSB_PTR, (uint16)(compare + 1u));
 528:.\Generated_Source\PSoC5/EN_A_PWM.c ****             #else
 529:.\Generated_Source\PSoC5/EN_A_PWM.c ****                 CY_SET_REG16(EN_A_PWM_COMPARE2_LSB_PTR, (compare + 1u));
 530:.\Generated_Source\PSoC5/EN_A_PWM.c ****             #endif /* (EN_A_PWM_UsingFixedFunction) */
 531:.\Generated_Source\PSoC5/EN_A_PWM.c ****         #endif /* (EN_A_PWM_PWMMode == EN_A_PWM__B_PWM__DITHER) */
 532:.\Generated_Source\PSoC5/EN_A_PWM.c ****     }
 533:.\Generated_Source\PSoC5/EN_A_PWM.c **** 
 534:.\Generated_Source\PSoC5/EN_A_PWM.c **** 
 535:.\Generated_Source\PSoC5/EN_A_PWM.c **** #else
 536:.\Generated_Source\PSoC5/EN_A_PWM.c **** 
 537:.\Generated_Source\PSoC5/EN_A_PWM.c **** 
 538:.\Generated_Source\PSoC5/EN_A_PWM.c ****     /*******************************************************************************
 539:.\Generated_Source\PSoC5/EN_A_PWM.c ****     * Function Name: EN_A_PWM_WriteCompare1
 540:.\Generated_Source\PSoC5/EN_A_PWM.c ****     ********************************************************************************
 541:.\Generated_Source\PSoC5/EN_A_PWM.c ****     *
 542:.\Generated_Source\PSoC5/EN_A_PWM.c ****     * Summary:
 543:.\Generated_Source\PSoC5/EN_A_PWM.c ****     *  This funtion is used to change the compare1 value.  The compare output will
 544:.\Generated_Source\PSoC5/EN_A_PWM.c ****     *  reflect the new value on the next UDB clock.  The compare output will be
 545:.\Generated_Source\PSoC5/EN_A_PWM.c ****     *  driven high when the present counter value is less than or less than or
 546:.\Generated_Source\PSoC5/EN_A_PWM.c ****     *  equal to the compare register, depending on the mode.
 547:.\Generated_Source\PSoC5/EN_A_PWM.c ****     *
 548:.\Generated_Source\PSoC5/EN_A_PWM.c ****     * Parameters:
 549:.\Generated_Source\PSoC5/EN_A_PWM.c ****     *  compare:  New compare value.
 550:.\Generated_Source\PSoC5/EN_A_PWM.c ****     *
 551:.\Generated_Source\PSoC5/EN_A_PWM.c ****     * Return:
 552:.\Generated_Source\PSoC5/EN_A_PWM.c ****     *  None
 553:.\Generated_Source\PSoC5/EN_A_PWM.c ****     *
 554:.\Generated_Source\PSoC5/EN_A_PWM.c ****     *******************************************************************************/
 555:.\Generated_Source\PSoC5/EN_A_PWM.c ****     void EN_A_PWM_WriteCompare1(uint16 compare) \
 556:.\Generated_Source\PSoC5/EN_A_PWM.c ****                                         
 557:.\Generated_Source\PSoC5/EN_A_PWM.c ****     {
 558:.\Generated_Source\PSoC5/EN_A_PWM.c ****         #if(EN_A_PWM_UsingFixedFunction)
 559:.\Generated_Source\PSoC5/EN_A_PWM.c ****             CY_SET_REG16(EN_A_PWM_COMPARE1_LSB_PTR, (uint16)compare);
 560:.\Generated_Source\PSoC5/EN_A_PWM.c ****         #else
 561:.\Generated_Source\PSoC5/EN_A_PWM.c ****             CY_SET_REG16(EN_A_PWM_COMPARE1_LSB_PTR, compare);
 562:.\Generated_Source\PSoC5/EN_A_PWM.c ****         #endif /* (EN_A_PWM_UsingFixedFunction) */
 563:.\Generated_Source\PSoC5/EN_A_PWM.c ****     }
 564:.\Generated_Source\PSoC5/EN_A_PWM.c **** 
 565:.\Generated_Source\PSoC5/EN_A_PWM.c **** 
 566:.\Generated_Source\PSoC5/EN_A_PWM.c ****     /*******************************************************************************
 567:.\Generated_Source\PSoC5/EN_A_PWM.c ****     * Function Name: EN_A_PWM_WriteCompare2
 568:.\Generated_Source\PSoC5/EN_A_PWM.c ****     ********************************************************************************
 569:.\Generated_Source\PSoC5/EN_A_PWM.c ****     *
 570:.\Generated_Source\PSoC5/EN_A_PWM.c ****     * Summary:
 571:.\Generated_Source\PSoC5/EN_A_PWM.c ****     *  This funtion is used to change the compare value, for compare1 output.
 572:.\Generated_Source\PSoC5/EN_A_PWM.c ****     *  The compare output will reflect the new value on the next UDB clock.
 573:.\Generated_Source\PSoC5/EN_A_PWM.c ****     *  The compare output will be driven high when the present counter value is
 574:.\Generated_Source\PSoC5/EN_A_PWM.c ****     *  less than or less than or equal to the compare register, depending on the
 575:.\Generated_Source\PSoC5/EN_A_PWM.c ****     *  mode.
 576:.\Generated_Source\PSoC5/EN_A_PWM.c ****     *
ARM GAS  C:\Users\Jorden\AppData\Local\Temp\ccQcvMzj.s 			page 14


 577:.\Generated_Source\PSoC5/EN_A_PWM.c ****     * Parameters:
 578:.\Generated_Source\PSoC5/EN_A_PWM.c ****     *  compare:  New compare value.
 579:.\Generated_Source\PSoC5/EN_A_PWM.c ****     *
 580:.\Generated_Source\PSoC5/EN_A_PWM.c ****     * Return:
 581:.\Generated_Source\PSoC5/EN_A_PWM.c ****     *  None
 582:.\Generated_Source\PSoC5/EN_A_PWM.c ****     *
 583:.\Generated_Source\PSoC5/EN_A_PWM.c ****     *******************************************************************************/
 584:.\Generated_Source\PSoC5/EN_A_PWM.c ****     void EN_A_PWM_WriteCompare2(uint16 compare) \
 585:.\Generated_Source\PSoC5/EN_A_PWM.c ****                                         
 586:.\Generated_Source\PSoC5/EN_A_PWM.c ****     {
 587:.\Generated_Source\PSoC5/EN_A_PWM.c ****         #if(EN_A_PWM_UsingFixedFunction)
 588:.\Generated_Source\PSoC5/EN_A_PWM.c ****             CY_SET_REG16(EN_A_PWM_COMPARE2_LSB_PTR, compare);
 589:.\Generated_Source\PSoC5/EN_A_PWM.c ****         #else
 590:.\Generated_Source\PSoC5/EN_A_PWM.c ****             CY_SET_REG16(EN_A_PWM_COMPARE2_LSB_PTR, compare);
 591:.\Generated_Source\PSoC5/EN_A_PWM.c ****         #endif /* (EN_A_PWM_UsingFixedFunction) */
 592:.\Generated_Source\PSoC5/EN_A_PWM.c ****     }
 593:.\Generated_Source\PSoC5/EN_A_PWM.c **** #endif /* UseOneCompareMode */
 594:.\Generated_Source\PSoC5/EN_A_PWM.c **** 
 595:.\Generated_Source\PSoC5/EN_A_PWM.c **** #if (EN_A_PWM_DeadBandUsed)
 596:.\Generated_Source\PSoC5/EN_A_PWM.c **** 
 597:.\Generated_Source\PSoC5/EN_A_PWM.c **** 
 598:.\Generated_Source\PSoC5/EN_A_PWM.c ****     /*******************************************************************************
 599:.\Generated_Source\PSoC5/EN_A_PWM.c ****     * Function Name: EN_A_PWM_WriteDeadTime
 600:.\Generated_Source\PSoC5/EN_A_PWM.c ****     ********************************************************************************
 601:.\Generated_Source\PSoC5/EN_A_PWM.c ****     *
 602:.\Generated_Source\PSoC5/EN_A_PWM.c ****     * Summary:
 603:.\Generated_Source\PSoC5/EN_A_PWM.c ****     *  This function writes the dead-band counts to the corresponding register
 604:.\Generated_Source\PSoC5/EN_A_PWM.c ****     *
 605:.\Generated_Source\PSoC5/EN_A_PWM.c ****     * Parameters:
 606:.\Generated_Source\PSoC5/EN_A_PWM.c ****     *  deadtime:  Number of counts for dead time
 607:.\Generated_Source\PSoC5/EN_A_PWM.c ****     *
 608:.\Generated_Source\PSoC5/EN_A_PWM.c ****     * Return:
 609:.\Generated_Source\PSoC5/EN_A_PWM.c ****     *  None
 610:.\Generated_Source\PSoC5/EN_A_PWM.c ****     *
 611:.\Generated_Source\PSoC5/EN_A_PWM.c ****     *******************************************************************************/
 612:.\Generated_Source\PSoC5/EN_A_PWM.c ****     void EN_A_PWM_WriteDeadTime(uint8 deadtime) 
 613:.\Generated_Source\PSoC5/EN_A_PWM.c ****     {
 614:.\Generated_Source\PSoC5/EN_A_PWM.c ****         /* If using the Dead Band 1-255 mode then just write the register */
 615:.\Generated_Source\PSoC5/EN_A_PWM.c ****         #if(!EN_A_PWM_DeadBand2_4)
 616:.\Generated_Source\PSoC5/EN_A_PWM.c ****             CY_SET_REG8(EN_A_PWM_DEADBAND_COUNT_PTR, deadtime);
 617:.\Generated_Source\PSoC5/EN_A_PWM.c ****         #else
 618:.\Generated_Source\PSoC5/EN_A_PWM.c ****             /* Otherwise the data has to be masked and offset */
 619:.\Generated_Source\PSoC5/EN_A_PWM.c ****             /* Clear existing data */
 620:.\Generated_Source\PSoC5/EN_A_PWM.c ****             EN_A_PWM_DEADBAND_COUNT &= ((uint8)(~EN_A_PWM_DEADBAND_COUNT_MASK));
 621:.\Generated_Source\PSoC5/EN_A_PWM.c **** 
 622:.\Generated_Source\PSoC5/EN_A_PWM.c ****             /* Set new dead time */
 623:.\Generated_Source\PSoC5/EN_A_PWM.c ****             #if(EN_A_PWM_DEADBAND_COUNT_SHIFT)
 624:.\Generated_Source\PSoC5/EN_A_PWM.c ****                 EN_A_PWM_DEADBAND_COUNT |= ((uint8)((uint8)deadtime << EN_A_PWM_DEADBAND_COUNT_SHIF
 625:.\Generated_Source\PSoC5/EN_A_PWM.c ****                                                     EN_A_PWM_DEADBAND_COUNT_MASK;
 626:.\Generated_Source\PSoC5/EN_A_PWM.c ****             #else
 627:.\Generated_Source\PSoC5/EN_A_PWM.c ****                 EN_A_PWM_DEADBAND_COUNT |= deadtime & EN_A_PWM_DEADBAND_COUNT_MASK;
 628:.\Generated_Source\PSoC5/EN_A_PWM.c ****             #endif /* (EN_A_PWM_DEADBAND_COUNT_SHIFT) */
 629:.\Generated_Source\PSoC5/EN_A_PWM.c **** 
 630:.\Generated_Source\PSoC5/EN_A_PWM.c ****         #endif /* (!EN_A_PWM_DeadBand2_4) */
 631:.\Generated_Source\PSoC5/EN_A_PWM.c ****     }
 632:.\Generated_Source\PSoC5/EN_A_PWM.c **** 
 633:.\Generated_Source\PSoC5/EN_A_PWM.c **** 
ARM GAS  C:\Users\Jorden\AppData\Local\Temp\ccQcvMzj.s 			page 15


 634:.\Generated_Source\PSoC5/EN_A_PWM.c ****     /*******************************************************************************
 635:.\Generated_Source\PSoC5/EN_A_PWM.c ****     * Function Name: EN_A_PWM_ReadDeadTime
 636:.\Generated_Source\PSoC5/EN_A_PWM.c ****     ********************************************************************************
 637:.\Generated_Source\PSoC5/EN_A_PWM.c ****     *
 638:.\Generated_Source\PSoC5/EN_A_PWM.c ****     * Summary:
 639:.\Generated_Source\PSoC5/EN_A_PWM.c ****     *  This function reads the dead-band counts from the corresponding register
 640:.\Generated_Source\PSoC5/EN_A_PWM.c ****     *
 641:.\Generated_Source\PSoC5/EN_A_PWM.c ****     * Parameters:
 642:.\Generated_Source\PSoC5/EN_A_PWM.c ****     *  None
 643:.\Generated_Source\PSoC5/EN_A_PWM.c ****     *
 644:.\Generated_Source\PSoC5/EN_A_PWM.c ****     * Return:
 645:.\Generated_Source\PSoC5/EN_A_PWM.c ****     *  Dead Band Counts
 646:.\Generated_Source\PSoC5/EN_A_PWM.c ****     *
 647:.\Generated_Source\PSoC5/EN_A_PWM.c ****     *******************************************************************************/
 648:.\Generated_Source\PSoC5/EN_A_PWM.c ****     uint8 EN_A_PWM_ReadDeadTime(void) 
 649:.\Generated_Source\PSoC5/EN_A_PWM.c ****     {
 650:.\Generated_Source\PSoC5/EN_A_PWM.c ****         /* If using the Dead Band 1-255 mode then just read the register */
 651:.\Generated_Source\PSoC5/EN_A_PWM.c ****         #if(!EN_A_PWM_DeadBand2_4)
 652:.\Generated_Source\PSoC5/EN_A_PWM.c ****             return (CY_GET_REG8(EN_A_PWM_DEADBAND_COUNT_PTR));
 653:.\Generated_Source\PSoC5/EN_A_PWM.c ****         #else
 654:.\Generated_Source\PSoC5/EN_A_PWM.c **** 
 655:.\Generated_Source\PSoC5/EN_A_PWM.c ****             /* Otherwise the data has to be masked and offset */
 656:.\Generated_Source\PSoC5/EN_A_PWM.c ****             #if(EN_A_PWM_DEADBAND_COUNT_SHIFT)
 657:.\Generated_Source\PSoC5/EN_A_PWM.c ****                 return ((uint8)(((uint8)(EN_A_PWM_DEADBAND_COUNT & EN_A_PWM_DEADBAND_COUNT_MASK)) >
 658:.\Generated_Source\PSoC5/EN_A_PWM.c ****                                                                            EN_A_PWM_DEADBAND_COUNT_
 659:.\Generated_Source\PSoC5/EN_A_PWM.c ****             #else
 660:.\Generated_Source\PSoC5/EN_A_PWM.c ****                 return (EN_A_PWM_DEADBAND_COUNT & EN_A_PWM_DEADBAND_COUNT_MASK);
 661:.\Generated_Source\PSoC5/EN_A_PWM.c ****             #endif /* (EN_A_PWM_DEADBAND_COUNT_SHIFT) */
 662:.\Generated_Source\PSoC5/EN_A_PWM.c ****         #endif /* (!EN_A_PWM_DeadBand2_4) */
 663:.\Generated_Source\PSoC5/EN_A_PWM.c ****     }
 664:.\Generated_Source\PSoC5/EN_A_PWM.c **** #endif /* DeadBandUsed */
 665:.\Generated_Source\PSoC5/EN_A_PWM.c **** 
 666:.\Generated_Source\PSoC5/EN_A_PWM.c **** #if (EN_A_PWM_UseStatus || EN_A_PWM_UsingFixedFunction)
 667:.\Generated_Source\PSoC5/EN_A_PWM.c **** 
 668:.\Generated_Source\PSoC5/EN_A_PWM.c **** 
 669:.\Generated_Source\PSoC5/EN_A_PWM.c ****     /*******************************************************************************
 670:.\Generated_Source\PSoC5/EN_A_PWM.c ****     * Function Name: EN_A_PWM_SetInterruptMode
 671:.\Generated_Source\PSoC5/EN_A_PWM.c ****     ********************************************************************************
 672:.\Generated_Source\PSoC5/EN_A_PWM.c ****     *
 673:.\Generated_Source\PSoC5/EN_A_PWM.c ****     * Summary:
 674:.\Generated_Source\PSoC5/EN_A_PWM.c ****     *  This function configures the interrupts mask control of theinterrupt
 675:.\Generated_Source\PSoC5/EN_A_PWM.c ****     *  source status register.
 676:.\Generated_Source\PSoC5/EN_A_PWM.c ****     *
 677:.\Generated_Source\PSoC5/EN_A_PWM.c ****     * Parameters:
 678:.\Generated_Source\PSoC5/EN_A_PWM.c ****     *  uint8 interruptMode: Bit field containing the interrupt sources enabled
 679:.\Generated_Source\PSoC5/EN_A_PWM.c ****     *
 680:.\Generated_Source\PSoC5/EN_A_PWM.c ****     * Return:
 681:.\Generated_Source\PSoC5/EN_A_PWM.c ****     *  None
 682:.\Generated_Source\PSoC5/EN_A_PWM.c ****     *
 683:.\Generated_Source\PSoC5/EN_A_PWM.c ****     *******************************************************************************/
 684:.\Generated_Source\PSoC5/EN_A_PWM.c ****     void EN_A_PWM_SetInterruptMode(uint8 interruptMode) 
 685:.\Generated_Source\PSoC5/EN_A_PWM.c ****     {
 166              		.loc 1 685 0
 167              		.cfi_startproc
 168              		@ args = 0, pretend = 0, frame = 0
 169              		@ frame_needed = 0, uses_anonymous_args = 0
 170              		@ link register save eliminated.
ARM GAS  C:\Users\Jorden\AppData\Local\Temp\ccQcvMzj.s 			page 16


 171              	.LVL3:
 686:.\Generated_Source\PSoC5/EN_A_PWM.c ****         CY_SET_REG8(EN_A_PWM_STATUS_MASK_PTR, interruptMode);
 172              		.loc 1 686 0
 173 0000 014B     		ldr	r3, .L16
 174 0002 1870     		strb	r0, [r3]
 175 0004 7047     		bx	lr
 176              	.L17:
 177 0006 00BF     		.align	2
 178              	.L16:
 179 0008 89640040 		.word	1073767561
 180              		.cfi_endproc
 181              	.LFE9:
 182              		.size	EN_A_PWM_SetInterruptMode, .-EN_A_PWM_SetInterruptMode
 183              		.section	.text.EN_A_PWM_ReadStatusRegister,"ax",%progbits
 184              		.align	2
 185              		.global	EN_A_PWM_ReadStatusRegister
 186              		.thumb
 187              		.thumb_func
 188              		.type	EN_A_PWM_ReadStatusRegister, %function
 189              	EN_A_PWM_ReadStatusRegister:
 190              	.LFB10:
 687:.\Generated_Source\PSoC5/EN_A_PWM.c ****     }
 688:.\Generated_Source\PSoC5/EN_A_PWM.c **** 
 689:.\Generated_Source\PSoC5/EN_A_PWM.c **** 
 690:.\Generated_Source\PSoC5/EN_A_PWM.c ****     /*******************************************************************************
 691:.\Generated_Source\PSoC5/EN_A_PWM.c ****     * Function Name: EN_A_PWM_ReadStatusRegister
 692:.\Generated_Source\PSoC5/EN_A_PWM.c ****     ********************************************************************************
 693:.\Generated_Source\PSoC5/EN_A_PWM.c ****     *
 694:.\Generated_Source\PSoC5/EN_A_PWM.c ****     * Summary:
 695:.\Generated_Source\PSoC5/EN_A_PWM.c ****     *  This function returns the current state of the status register.
 696:.\Generated_Source\PSoC5/EN_A_PWM.c ****     *
 697:.\Generated_Source\PSoC5/EN_A_PWM.c ****     * Parameters:
 698:.\Generated_Source\PSoC5/EN_A_PWM.c ****     *  None
 699:.\Generated_Source\PSoC5/EN_A_PWM.c ****     *
 700:.\Generated_Source\PSoC5/EN_A_PWM.c ****     * Return:
 701:.\Generated_Source\PSoC5/EN_A_PWM.c ****     *  uint8 : Current status register value. The status register bits are:
 702:.\Generated_Source\PSoC5/EN_A_PWM.c ****     *  [7:6] : Unused(0)
 703:.\Generated_Source\PSoC5/EN_A_PWM.c ****     *  [5]   : Kill event output
 704:.\Generated_Source\PSoC5/EN_A_PWM.c ****     *  [4]   : FIFO not empty
 705:.\Generated_Source\PSoC5/EN_A_PWM.c ****     *  [3]   : FIFO full
 706:.\Generated_Source\PSoC5/EN_A_PWM.c ****     *  [2]   : Terminal count
 707:.\Generated_Source\PSoC5/EN_A_PWM.c ****     *  [1]   : Compare output 2
 708:.\Generated_Source\PSoC5/EN_A_PWM.c ****     *  [0]   : Compare output 1
 709:.\Generated_Source\PSoC5/EN_A_PWM.c ****     *
 710:.\Generated_Source\PSoC5/EN_A_PWM.c ****     *******************************************************************************/
 711:.\Generated_Source\PSoC5/EN_A_PWM.c ****     uint8 EN_A_PWM_ReadStatusRegister(void) 
 712:.\Generated_Source\PSoC5/EN_A_PWM.c ****     {
 191              		.loc 1 712 0
 192              		.cfi_startproc
 193              		@ args = 0, pretend = 0, frame = 0
 194              		@ frame_needed = 0, uses_anonymous_args = 0
 195              		@ link register save eliminated.
 713:.\Generated_Source\PSoC5/EN_A_PWM.c ****         return (CY_GET_REG8(EN_A_PWM_STATUS_PTR));
 196              		.loc 1 713 0
 197 0000 014B     		ldr	r3, .L19
 198 0002 1878     		ldrb	r0, [r3]	@ zero_extendqisi2
 714:.\Generated_Source\PSoC5/EN_A_PWM.c ****     }
ARM GAS  C:\Users\Jorden\AppData\Local\Temp\ccQcvMzj.s 			page 17


 199              		.loc 1 714 0
 200 0004 7047     		bx	lr
 201              	.L20:
 202 0006 00BF     		.align	2
 203              	.L19:
 204 0008 69640040 		.word	1073767529
 205              		.cfi_endproc
 206              	.LFE10:
 207              		.size	EN_A_PWM_ReadStatusRegister, .-EN_A_PWM_ReadStatusRegister
 208              		.section	.text.EN_A_PWM_ReadCapture,"ax",%progbits
 209              		.align	2
 210              		.global	EN_A_PWM_ReadCapture
 211              		.thumb
 212              		.thumb_func
 213              		.type	EN_A_PWM_ReadCapture, %function
 214              	EN_A_PWM_ReadCapture:
 215              	.LFB11:
 715:.\Generated_Source\PSoC5/EN_A_PWM.c **** 
 716:.\Generated_Source\PSoC5/EN_A_PWM.c **** #endif /* (EN_A_PWM_UseStatus || EN_A_PWM_UsingFixedFunction) */
 717:.\Generated_Source\PSoC5/EN_A_PWM.c **** 
 718:.\Generated_Source\PSoC5/EN_A_PWM.c **** 
 719:.\Generated_Source\PSoC5/EN_A_PWM.c **** #if (EN_A_PWM_UseControl)
 720:.\Generated_Source\PSoC5/EN_A_PWM.c **** 
 721:.\Generated_Source\PSoC5/EN_A_PWM.c **** 
 722:.\Generated_Source\PSoC5/EN_A_PWM.c ****     /*******************************************************************************
 723:.\Generated_Source\PSoC5/EN_A_PWM.c ****     * Function Name: EN_A_PWM_ReadControlRegister
 724:.\Generated_Source\PSoC5/EN_A_PWM.c ****     ********************************************************************************
 725:.\Generated_Source\PSoC5/EN_A_PWM.c ****     *
 726:.\Generated_Source\PSoC5/EN_A_PWM.c ****     * Summary:
 727:.\Generated_Source\PSoC5/EN_A_PWM.c ****     *  Returns the current state of the control register. This API is available
 728:.\Generated_Source\PSoC5/EN_A_PWM.c ****     *  only if the control register is not removed.
 729:.\Generated_Source\PSoC5/EN_A_PWM.c ****     *
 730:.\Generated_Source\PSoC5/EN_A_PWM.c ****     * Parameters:
 731:.\Generated_Source\PSoC5/EN_A_PWM.c ****     *  None
 732:.\Generated_Source\PSoC5/EN_A_PWM.c ****     *
 733:.\Generated_Source\PSoC5/EN_A_PWM.c ****     * Return:
 734:.\Generated_Source\PSoC5/EN_A_PWM.c ****     *  uint8 : Current control register value
 735:.\Generated_Source\PSoC5/EN_A_PWM.c ****     *
 736:.\Generated_Source\PSoC5/EN_A_PWM.c ****     *******************************************************************************/
 737:.\Generated_Source\PSoC5/EN_A_PWM.c ****     uint8 EN_A_PWM_ReadControlRegister(void) 
 738:.\Generated_Source\PSoC5/EN_A_PWM.c ****     {
 739:.\Generated_Source\PSoC5/EN_A_PWM.c ****         uint8 result;
 740:.\Generated_Source\PSoC5/EN_A_PWM.c **** 
 741:.\Generated_Source\PSoC5/EN_A_PWM.c ****         result = CY_GET_REG8(EN_A_PWM_CONTROL_PTR);
 742:.\Generated_Source\PSoC5/EN_A_PWM.c ****         return (result);
 743:.\Generated_Source\PSoC5/EN_A_PWM.c ****     }
 744:.\Generated_Source\PSoC5/EN_A_PWM.c **** 
 745:.\Generated_Source\PSoC5/EN_A_PWM.c **** 
 746:.\Generated_Source\PSoC5/EN_A_PWM.c ****     /*******************************************************************************
 747:.\Generated_Source\PSoC5/EN_A_PWM.c ****     * Function Name: EN_A_PWM_WriteControlRegister
 748:.\Generated_Source\PSoC5/EN_A_PWM.c ****     ********************************************************************************
 749:.\Generated_Source\PSoC5/EN_A_PWM.c ****     *
 750:.\Generated_Source\PSoC5/EN_A_PWM.c ****     * Summary:
 751:.\Generated_Source\PSoC5/EN_A_PWM.c ****     *  Sets the bit field of the control register. This API is available only if
 752:.\Generated_Source\PSoC5/EN_A_PWM.c ****     *  the control register is not removed.
 753:.\Generated_Source\PSoC5/EN_A_PWM.c ****     *
 754:.\Generated_Source\PSoC5/EN_A_PWM.c ****     * Parameters:
ARM GAS  C:\Users\Jorden\AppData\Local\Temp\ccQcvMzj.s 			page 18


 755:.\Generated_Source\PSoC5/EN_A_PWM.c ****     *  uint8 control: Control register bit field, The status register bits are:
 756:.\Generated_Source\PSoC5/EN_A_PWM.c ****     *  [7]   : PWM Enable
 757:.\Generated_Source\PSoC5/EN_A_PWM.c ****     *  [6]   : Reset
 758:.\Generated_Source\PSoC5/EN_A_PWM.c ****     *  [5:3] : Compare Mode2
 759:.\Generated_Source\PSoC5/EN_A_PWM.c ****     *  [2:0] : Compare Mode2
 760:.\Generated_Source\PSoC5/EN_A_PWM.c ****     *
 761:.\Generated_Source\PSoC5/EN_A_PWM.c ****     * Return:
 762:.\Generated_Source\PSoC5/EN_A_PWM.c ****     *  None
 763:.\Generated_Source\PSoC5/EN_A_PWM.c ****     *
 764:.\Generated_Source\PSoC5/EN_A_PWM.c ****     *******************************************************************************/
 765:.\Generated_Source\PSoC5/EN_A_PWM.c ****     void EN_A_PWM_WriteControlRegister(uint8 control) 
 766:.\Generated_Source\PSoC5/EN_A_PWM.c ****     {
 767:.\Generated_Source\PSoC5/EN_A_PWM.c ****         CY_SET_REG8(EN_A_PWM_CONTROL_PTR, control);
 768:.\Generated_Source\PSoC5/EN_A_PWM.c ****     }
 769:.\Generated_Source\PSoC5/EN_A_PWM.c **** 
 770:.\Generated_Source\PSoC5/EN_A_PWM.c **** #endif /* (EN_A_PWM_UseControl) */
 771:.\Generated_Source\PSoC5/EN_A_PWM.c **** 
 772:.\Generated_Source\PSoC5/EN_A_PWM.c **** 
 773:.\Generated_Source\PSoC5/EN_A_PWM.c **** #if (!EN_A_PWM_UsingFixedFunction)
 774:.\Generated_Source\PSoC5/EN_A_PWM.c **** 
 775:.\Generated_Source\PSoC5/EN_A_PWM.c **** 
 776:.\Generated_Source\PSoC5/EN_A_PWM.c ****     /*******************************************************************************
 777:.\Generated_Source\PSoC5/EN_A_PWM.c ****     * Function Name: EN_A_PWM_ReadCapture
 778:.\Generated_Source\PSoC5/EN_A_PWM.c ****     ********************************************************************************
 779:.\Generated_Source\PSoC5/EN_A_PWM.c ****     *
 780:.\Generated_Source\PSoC5/EN_A_PWM.c ****     * Summary:
 781:.\Generated_Source\PSoC5/EN_A_PWM.c ****     *  Reads the capture value from the capture FIFO.
 782:.\Generated_Source\PSoC5/EN_A_PWM.c ****     *
 783:.\Generated_Source\PSoC5/EN_A_PWM.c ****     * Parameters:
 784:.\Generated_Source\PSoC5/EN_A_PWM.c ****     *  None
 785:.\Generated_Source\PSoC5/EN_A_PWM.c ****     *
 786:.\Generated_Source\PSoC5/EN_A_PWM.c ****     * Return:
 787:.\Generated_Source\PSoC5/EN_A_PWM.c ****     *  uint8/uint16: The current capture value
 788:.\Generated_Source\PSoC5/EN_A_PWM.c ****     *
 789:.\Generated_Source\PSoC5/EN_A_PWM.c ****     *******************************************************************************/
 790:.\Generated_Source\PSoC5/EN_A_PWM.c ****     uint16 EN_A_PWM_ReadCapture(void) 
 791:.\Generated_Source\PSoC5/EN_A_PWM.c ****     {
 216              		.loc 1 791 0
 217              		.cfi_startproc
 218              		@ args = 0, pretend = 0, frame = 0
 219              		@ frame_needed = 0, uses_anonymous_args = 0
 220              		@ link register save eliminated.
 792:.\Generated_Source\PSoC5/EN_A_PWM.c ****         return (CY_GET_REG16(EN_A_PWM_CAPTURE_LSB_PTR));
 221              		.loc 1 792 0
 222 0000 014B     		ldr	r3, .L22
 223 0002 1888     		ldrh	r0, [r3]
 793:.\Generated_Source\PSoC5/EN_A_PWM.c ****     }
 224              		.loc 1 793 0
 225 0004 80B2     		uxth	r0, r0
 226 0006 7047     		bx	lr
 227              	.L23:
 228              		.align	2
 229              	.L22:
 230 0008 B2680040 		.word	1073768626
 231              		.cfi_endproc
 232              	.LFE11:
 233              		.size	EN_A_PWM_ReadCapture, .-EN_A_PWM_ReadCapture
ARM GAS  C:\Users\Jorden\AppData\Local\Temp\ccQcvMzj.s 			page 19


 234              		.section	.text.EN_A_PWM_ClearFIFO,"ax",%progbits
 235              		.align	2
 236              		.global	EN_A_PWM_ClearFIFO
 237              		.thumb
 238              		.thumb_func
 239              		.type	EN_A_PWM_ClearFIFO, %function
 240              	EN_A_PWM_ClearFIFO:
 241              	.LFB6:
 454:.\Generated_Source\PSoC5/EN_A_PWM.c ****         {
 242              		.loc 1 454 0
 243              		.cfi_startproc
 244              		@ args = 0, pretend = 0, frame = 0
 245              		@ frame_needed = 0, uses_anonymous_args = 0
 246 0000 08B5     		push	{r3, lr}
 247              		.cfi_def_cfa_offset 8
 248              		.cfi_offset 3, -8
 249              		.cfi_offset 14, -4
 455:.\Generated_Source\PSoC5/EN_A_PWM.c ****             while(0u != (EN_A_PWM_ReadStatusRegister() & EN_A_PWM_STATUS_FIFONEMPTY))
 250              		.loc 1 455 0
 251 0002 01E0     		b	.L25
 252              	.L26:
 457:.\Generated_Source\PSoC5/EN_A_PWM.c ****                 (void)EN_A_PWM_ReadCapture();
 253              		.loc 1 457 0
 254 0004 FFF7FEFF 		bl	EN_A_PWM_ReadCapture
 255              	.LVL4:
 256              	.L25:
 455:.\Generated_Source\PSoC5/EN_A_PWM.c ****             while(0u != (EN_A_PWM_ReadStatusRegister() & EN_A_PWM_STATUS_FIFONEMPTY))
 257              		.loc 1 455 0 discriminator 1
 258 0008 FFF7FEFF 		bl	EN_A_PWM_ReadStatusRegister
 259              	.LVL5:
 260 000c 10F0100F 		tst	r0, #16
 261 0010 F8D1     		bne	.L26
 459:.\Generated_Source\PSoC5/EN_A_PWM.c ****         }
 262              		.loc 1 459 0
 263 0012 08BD     		pop	{r3, pc}
 264              		.cfi_endproc
 265              	.LFE6:
 266              		.size	EN_A_PWM_ClearFIFO, .-EN_A_PWM_ClearFIFO
 267              		.section	.text.EN_A_PWM_Init,"ax",%progbits
 268              		.align	2
 269              		.global	EN_A_PWM_Init
 270              		.thumb
 271              		.thumb_func
 272              		.type	EN_A_PWM_Init, %function
 273              	EN_A_PWM_Init:
 274              	.LFB1:
  85:.\Generated_Source\PSoC5/EN_A_PWM.c **** {
 275              		.loc 1 85 0
 276              		.cfi_startproc
 277              		@ args = 0, pretend = 0, frame = 0
 278              		@ frame_needed = 0, uses_anonymous_args = 0
 279 0000 10B5     		push	{r4, lr}
 280              		.cfi_def_cfa_offset 8
 281              		.cfi_offset 4, -8
 282              		.cfi_offset 14, -4
 129:.\Generated_Source\PSoC5/EN_A_PWM.c ****             EN_A_PWM_AUX_CONTROLDP0 |= (EN_A_PWM_AUX_CTRL_FIFO0_CLR);
 283              		.loc 1 129 0
ARM GAS  C:\Users\Jorden\AppData\Local\Temp\ccQcvMzj.s 			page 20


 284 0002 124C     		ldr	r4, .L28
 285 0004 2378     		ldrb	r3, [r4]	@ zero_extendqisi2
 286 0006 43F00103 		orr	r3, r3, #1
 287 000a 2370     		strb	r3, [r4]
 130:.\Generated_Source\PSoC5/EN_A_PWM.c ****             EN_A_PWM_AUX_CONTROLDP1 |= (EN_A_PWM_AUX_CTRL_FIFO0_CLR);
 288              		.loc 1 130 0
 289 000c 104B     		ldr	r3, .L28+4
 290 000e 1A78     		ldrb	r2, [r3]	@ zero_extendqisi2
 291 0010 42F00102 		orr	r2, r2, #1
 292 0014 1A70     		strb	r2, [r3]
 133:.\Generated_Source\PSoC5/EN_A_PWM.c ****         EN_A_PWM_WriteCounter(EN_A_PWM_INIT_PERIOD_VALUE);
 293              		.loc 1 133 0
 294 0016 4EF66020 		movw	r0, #60000
 295 001a FFF7FEFF 		bl	EN_A_PWM_WriteCounter
 296              	.LVL6:
 136:.\Generated_Source\PSoC5/EN_A_PWM.c ****     EN_A_PWM_WritePeriod(EN_A_PWM_INIT_PERIOD_VALUE);
 297              		.loc 1 136 0
 298 001e 4EF66020 		movw	r0, #60000
 299 0022 FFF7FEFF 		bl	EN_A_PWM_WritePeriod
 300              	.LVL7:
 139:.\Generated_Source\PSoC5/EN_A_PWM.c ****             EN_A_PWM_WriteCompare(EN_A_PWM_INIT_COMPARE_VALUE1);
 301              		.loc 1 139 0
 302 0026 47F23050 		movw	r0, #30000
 303 002a FFF7FEFF 		bl	EN_A_PWM_WriteCompare
 304              	.LVL8:
 154:.\Generated_Source\PSoC5/EN_A_PWM.c ****         EN_A_PWM_SetInterruptMode(EN_A_PWM_INIT_INTERRUPTS_MODE);
 305              		.loc 1 154 0
 306 002e 0020     		movs	r0, #0
 307 0030 FFF7FEFF 		bl	EN_A_PWM_SetInterruptMode
 308              	.LVL9:
 167:.\Generated_Source\PSoC5/EN_A_PWM.c ****             EN_A_PWM_interruptState = CyEnterCriticalSection();
 309              		.loc 1 167 0
 310 0034 FFF7FEFF 		bl	CyEnterCriticalSection
 311              	.LVL10:
 169:.\Generated_Source\PSoC5/EN_A_PWM.c ****             EN_A_PWM_STATUS_AUX_CTRL |= EN_A_PWM_STATUS_ACTL_INT_EN_MASK;
 312              		.loc 1 169 0
 313 0038 2378     		ldrb	r3, [r4]	@ zero_extendqisi2
 314 003a 43F01003 		orr	r3, r3, #16
 315 003e 2370     		strb	r3, [r4]
 172:.\Generated_Source\PSoC5/EN_A_PWM.c ****             CyExitCriticalSection(EN_A_PWM_interruptState);
 316              		.loc 1 172 0
 317 0040 FFF7FEFF 		bl	CyExitCriticalSection
 318              	.LVL11:
 176:.\Generated_Source\PSoC5/EN_A_PWM.c ****             EN_A_PWM_ClearFIFO();
 319              		.loc 1 176 0
 320 0044 FFF7FEFF 		bl	EN_A_PWM_ClearFIFO
 321              	.LVL12:
 322 0048 10BD     		pop	{r4, pc}
 323              	.L29:
 324 004a 00BF     		.align	2
 325              	.L28:
 326 004c 99640040 		.word	1073767577
 327 0050 9A640040 		.word	1073767578
 328              		.cfi_endproc
 329              	.LFE1:
 330              		.size	EN_A_PWM_Init, .-EN_A_PWM_Init
 331              		.section	.text.EN_A_PWM_Start,"ax",%progbits
ARM GAS  C:\Users\Jorden\AppData\Local\Temp\ccQcvMzj.s 			page 21


 332              		.align	2
 333              		.global	EN_A_PWM_Start
 334              		.thumb
 335              		.thumb_func
 336              		.type	EN_A_PWM_Start, %function
 337              	EN_A_PWM_Start:
 338              	.LFB0:
  56:.\Generated_Source\PSoC5/EN_A_PWM.c **** {
 339              		.loc 1 56 0
 340              		.cfi_startproc
 341              		@ args = 0, pretend = 0, frame = 0
 342              		@ frame_needed = 0, uses_anonymous_args = 0
 343 0000 08B5     		push	{r3, lr}
 344              		.cfi_def_cfa_offset 8
 345              		.cfi_offset 3, -8
 346              		.cfi_offset 14, -4
  58:.\Generated_Source\PSoC5/EN_A_PWM.c ****     if(EN_A_PWM_initVar == 0u)
 347              		.loc 1 58 0
 348 0002 044B     		ldr	r3, .L32
 349 0004 1B78     		ldrb	r3, [r3]	@ zero_extendqisi2
 350 0006 23B9     		cbnz	r3, .L30
  60:.\Generated_Source\PSoC5/EN_A_PWM.c ****         EN_A_PWM_Init();
 351              		.loc 1 60 0
 352 0008 FFF7FEFF 		bl	EN_A_PWM_Init
 353              	.LVL13:
  61:.\Generated_Source\PSoC5/EN_A_PWM.c ****         EN_A_PWM_initVar = 1u;
 354              		.loc 1 61 0
 355 000c 0122     		movs	r2, #1
 356 000e 014B     		ldr	r3, .L32
 357 0010 1A70     		strb	r2, [r3]
 358              	.L30:
 359 0012 08BD     		pop	{r3, pc}
 360              	.L33:
 361              		.align	2
 362              	.L32:
 363 0014 00000000 		.word	.LANCHOR0
 364              		.cfi_endproc
 365              	.LFE0:
 366              		.size	EN_A_PWM_Start, .-EN_A_PWM_Start
 367              		.section	.text.EN_A_PWM_ReadCompare,"ax",%progbits
 368              		.align	2
 369              		.global	EN_A_PWM_ReadCompare
 370              		.thumb
 371              		.thumb_func
 372              		.type	EN_A_PWM_ReadCompare, %function
 373              	EN_A_PWM_ReadCompare:
 374              	.LFB12:
 794:.\Generated_Source\PSoC5/EN_A_PWM.c **** 
 795:.\Generated_Source\PSoC5/EN_A_PWM.c **** #endif /* (!EN_A_PWM_UsingFixedFunction) */
 796:.\Generated_Source\PSoC5/EN_A_PWM.c **** 
 797:.\Generated_Source\PSoC5/EN_A_PWM.c **** 
 798:.\Generated_Source\PSoC5/EN_A_PWM.c **** #if (EN_A_PWM_UseOneCompareMode)
 799:.\Generated_Source\PSoC5/EN_A_PWM.c **** 
 800:.\Generated_Source\PSoC5/EN_A_PWM.c **** 
 801:.\Generated_Source\PSoC5/EN_A_PWM.c ****     /*******************************************************************************
 802:.\Generated_Source\PSoC5/EN_A_PWM.c ****     * Function Name: EN_A_PWM_ReadCompare
 803:.\Generated_Source\PSoC5/EN_A_PWM.c ****     ********************************************************************************
ARM GAS  C:\Users\Jorden\AppData\Local\Temp\ccQcvMzj.s 			page 22


 804:.\Generated_Source\PSoC5/EN_A_PWM.c ****     *
 805:.\Generated_Source\PSoC5/EN_A_PWM.c ****     * Summary:
 806:.\Generated_Source\PSoC5/EN_A_PWM.c ****     *  Reads the compare value for the compare output when the PWM Mode parameter is
 807:.\Generated_Source\PSoC5/EN_A_PWM.c ****     *  set to Dither mode, Center Aligned mode, or One Output mode.
 808:.\Generated_Source\PSoC5/EN_A_PWM.c ****     *
 809:.\Generated_Source\PSoC5/EN_A_PWM.c ****     * Parameters:
 810:.\Generated_Source\PSoC5/EN_A_PWM.c ****     *  None
 811:.\Generated_Source\PSoC5/EN_A_PWM.c ****     *
 812:.\Generated_Source\PSoC5/EN_A_PWM.c ****     * Return:
 813:.\Generated_Source\PSoC5/EN_A_PWM.c ****     *  uint8/uint16: Current compare value
 814:.\Generated_Source\PSoC5/EN_A_PWM.c ****     *
 815:.\Generated_Source\PSoC5/EN_A_PWM.c ****     *******************************************************************************/
 816:.\Generated_Source\PSoC5/EN_A_PWM.c ****     uint16 EN_A_PWM_ReadCompare(void) 
 817:.\Generated_Source\PSoC5/EN_A_PWM.c ****     {
 375              		.loc 1 817 0
 376              		.cfi_startproc
 377              		@ args = 0, pretend = 0, frame = 0
 378              		@ frame_needed = 0, uses_anonymous_args = 0
 379              		@ link register save eliminated.
 818:.\Generated_Source\PSoC5/EN_A_PWM.c ****         #if(EN_A_PWM_UsingFixedFunction)
 819:.\Generated_Source\PSoC5/EN_A_PWM.c ****             return ((uint16)CY_GET_REG16(EN_A_PWM_COMPARE1_LSB_PTR));
 820:.\Generated_Source\PSoC5/EN_A_PWM.c ****         #else
 821:.\Generated_Source\PSoC5/EN_A_PWM.c ****             return (CY_GET_REG16(EN_A_PWM_COMPARE1_LSB_PTR));
 380              		.loc 1 821 0
 381 0000 014B     		ldr	r3, .L35
 382 0002 1888     		ldrh	r0, [r3]
 822:.\Generated_Source\PSoC5/EN_A_PWM.c ****         #endif /* (EN_A_PWM_UsingFixedFunction) */
 823:.\Generated_Source\PSoC5/EN_A_PWM.c ****     }
 383              		.loc 1 823 0
 384 0004 80B2     		uxth	r0, r0
 385 0006 7047     		bx	lr
 386              	.L36:
 387              		.align	2
 388              	.L35:
 389 0008 52680040 		.word	1073768530
 390              		.cfi_endproc
 391              	.LFE12:
 392              		.size	EN_A_PWM_ReadCompare, .-EN_A_PWM_ReadCompare
 393              		.section	.text.EN_A_PWM_ReadPeriod,"ax",%progbits
 394              		.align	2
 395              		.global	EN_A_PWM_ReadPeriod
 396              		.thumb
 397              		.thumb_func
 398              		.type	EN_A_PWM_ReadPeriod, %function
 399              	EN_A_PWM_ReadPeriod:
 400              	.LFB13:
 824:.\Generated_Source\PSoC5/EN_A_PWM.c **** 
 825:.\Generated_Source\PSoC5/EN_A_PWM.c **** #else
 826:.\Generated_Source\PSoC5/EN_A_PWM.c **** 
 827:.\Generated_Source\PSoC5/EN_A_PWM.c **** 
 828:.\Generated_Source\PSoC5/EN_A_PWM.c ****     /*******************************************************************************
 829:.\Generated_Source\PSoC5/EN_A_PWM.c ****     * Function Name: EN_A_PWM_ReadCompare1
 830:.\Generated_Source\PSoC5/EN_A_PWM.c ****     ********************************************************************************
 831:.\Generated_Source\PSoC5/EN_A_PWM.c ****     *
 832:.\Generated_Source\PSoC5/EN_A_PWM.c ****     * Summary:
 833:.\Generated_Source\PSoC5/EN_A_PWM.c ****     *  Reads the compare value for the compare1 output.
 834:.\Generated_Source\PSoC5/EN_A_PWM.c ****     *
ARM GAS  C:\Users\Jorden\AppData\Local\Temp\ccQcvMzj.s 			page 23


 835:.\Generated_Source\PSoC5/EN_A_PWM.c ****     * Parameters:
 836:.\Generated_Source\PSoC5/EN_A_PWM.c ****     *  None
 837:.\Generated_Source\PSoC5/EN_A_PWM.c ****     *
 838:.\Generated_Source\PSoC5/EN_A_PWM.c ****     * Return:
 839:.\Generated_Source\PSoC5/EN_A_PWM.c ****     *  uint8/uint16: Current compare value.
 840:.\Generated_Source\PSoC5/EN_A_PWM.c ****     *
 841:.\Generated_Source\PSoC5/EN_A_PWM.c ****     *******************************************************************************/
 842:.\Generated_Source\PSoC5/EN_A_PWM.c ****     uint16 EN_A_PWM_ReadCompare1(void) 
 843:.\Generated_Source\PSoC5/EN_A_PWM.c ****     {
 844:.\Generated_Source\PSoC5/EN_A_PWM.c ****         return (CY_GET_REG16(EN_A_PWM_COMPARE1_LSB_PTR));
 845:.\Generated_Source\PSoC5/EN_A_PWM.c ****     }
 846:.\Generated_Source\PSoC5/EN_A_PWM.c **** 
 847:.\Generated_Source\PSoC5/EN_A_PWM.c **** 
 848:.\Generated_Source\PSoC5/EN_A_PWM.c ****     /*******************************************************************************
 849:.\Generated_Source\PSoC5/EN_A_PWM.c ****     * Function Name: EN_A_PWM_ReadCompare2
 850:.\Generated_Source\PSoC5/EN_A_PWM.c ****     ********************************************************************************
 851:.\Generated_Source\PSoC5/EN_A_PWM.c ****     *
 852:.\Generated_Source\PSoC5/EN_A_PWM.c ****     * Summary:
 853:.\Generated_Source\PSoC5/EN_A_PWM.c ****     *  Reads the compare value for the compare2 output.
 854:.\Generated_Source\PSoC5/EN_A_PWM.c ****     *
 855:.\Generated_Source\PSoC5/EN_A_PWM.c ****     * Parameters:
 856:.\Generated_Source\PSoC5/EN_A_PWM.c ****     *  None
 857:.\Generated_Source\PSoC5/EN_A_PWM.c ****     *
 858:.\Generated_Source\PSoC5/EN_A_PWM.c ****     * Return:
 859:.\Generated_Source\PSoC5/EN_A_PWM.c ****     *  uint8/uint16: Current compare value.
 860:.\Generated_Source\PSoC5/EN_A_PWM.c ****     *
 861:.\Generated_Source\PSoC5/EN_A_PWM.c ****     *******************************************************************************/
 862:.\Generated_Source\PSoC5/EN_A_PWM.c ****     uint16 EN_A_PWM_ReadCompare2(void) 
 863:.\Generated_Source\PSoC5/EN_A_PWM.c ****     {
 864:.\Generated_Source\PSoC5/EN_A_PWM.c ****         return (CY_GET_REG16(EN_A_PWM_COMPARE2_LSB_PTR));
 865:.\Generated_Source\PSoC5/EN_A_PWM.c ****     }
 866:.\Generated_Source\PSoC5/EN_A_PWM.c **** 
 867:.\Generated_Source\PSoC5/EN_A_PWM.c **** #endif /* (EN_A_PWM_UseOneCompareMode) */
 868:.\Generated_Source\PSoC5/EN_A_PWM.c **** 
 869:.\Generated_Source\PSoC5/EN_A_PWM.c **** 
 870:.\Generated_Source\PSoC5/EN_A_PWM.c **** /*******************************************************************************
 871:.\Generated_Source\PSoC5/EN_A_PWM.c **** * Function Name: EN_A_PWM_ReadPeriod
 872:.\Generated_Source\PSoC5/EN_A_PWM.c **** ********************************************************************************
 873:.\Generated_Source\PSoC5/EN_A_PWM.c **** *
 874:.\Generated_Source\PSoC5/EN_A_PWM.c **** * Summary:
 875:.\Generated_Source\PSoC5/EN_A_PWM.c **** *  Reads the period value used by the PWM hardware.
 876:.\Generated_Source\PSoC5/EN_A_PWM.c **** *
 877:.\Generated_Source\PSoC5/EN_A_PWM.c **** * Parameters:
 878:.\Generated_Source\PSoC5/EN_A_PWM.c **** *  None
 879:.\Generated_Source\PSoC5/EN_A_PWM.c **** *
 880:.\Generated_Source\PSoC5/EN_A_PWM.c **** * Return:
 881:.\Generated_Source\PSoC5/EN_A_PWM.c **** *  uint8/16: Period value
 882:.\Generated_Source\PSoC5/EN_A_PWM.c **** *
 883:.\Generated_Source\PSoC5/EN_A_PWM.c **** *******************************************************************************/
 884:.\Generated_Source\PSoC5/EN_A_PWM.c **** uint16 EN_A_PWM_ReadPeriod(void) 
 885:.\Generated_Source\PSoC5/EN_A_PWM.c **** {
 401              		.loc 1 885 0
 402              		.cfi_startproc
 403              		@ args = 0, pretend = 0, frame = 0
 404              		@ frame_needed = 0, uses_anonymous_args = 0
 405              		@ link register save eliminated.
 886:.\Generated_Source\PSoC5/EN_A_PWM.c ****     #if(EN_A_PWM_UsingFixedFunction)
ARM GAS  C:\Users\Jorden\AppData\Local\Temp\ccQcvMzj.s 			page 24


 887:.\Generated_Source\PSoC5/EN_A_PWM.c ****         return ((uint16)CY_GET_REG16(EN_A_PWM_PERIOD_LSB_PTR));
 888:.\Generated_Source\PSoC5/EN_A_PWM.c ****     #else
 889:.\Generated_Source\PSoC5/EN_A_PWM.c ****         return (CY_GET_REG16(EN_A_PWM_PERIOD_LSB_PTR));
 406              		.loc 1 889 0
 407 0000 014B     		ldr	r3, .L38
 408 0002 1888     		ldrh	r0, [r3]
 890:.\Generated_Source\PSoC5/EN_A_PWM.c ****     #endif /* (EN_A_PWM_UsingFixedFunction) */
 891:.\Generated_Source\PSoC5/EN_A_PWM.c **** }
 409              		.loc 1 891 0
 410 0004 80B2     		uxth	r0, r0
 411 0006 7047     		bx	lr
 412              	.L39:
 413              		.align	2
 414              	.L38:
 415 0008 92680040 		.word	1073768594
 416              		.cfi_endproc
 417              	.LFE13:
 418              		.size	EN_A_PWM_ReadPeriod, .-EN_A_PWM_ReadPeriod
 419              		.global	EN_A_PWM_initVar
 420              		.bss
 421              		.set	.LANCHOR0,. + 0
 422              		.type	EN_A_PWM_initVar, %object
 423              		.size	EN_A_PWM_initVar, 1
 424              	EN_A_PWM_initVar:
 425 0000 00       		.space	1
 426              		.text
 427              	.Letext0:
 428              		.file 2 ".\\Generated_Source\\PSoC5\\cytypes.h"
 429              		.file 3 ".\\Generated_Source\\PSoC5\\CyLib.h"