ARM GAS  C:\Users\Jorden\AppData\Local\Temp\ccG5N1sK.s 			page 1


   1              		.syntax unified
   2              		.cpu cortex-m3
   3              		.fpu softvfp
   4              		.eabi_attribute 20, 1
   5              		.eabi_attribute 21, 1
   6              		.eabi_attribute 23, 3
   7              		.eabi_attribute 24, 1
   8              		.eabi_attribute 25, 1
   9              		.eabi_attribute 26, 1
  10              		.eabi_attribute 30, 1
  11              		.eabi_attribute 34, 1
  12              		.eabi_attribute 18, 4
  13              		.thumb
  14              		.file	"HMC5883L.c"
  15              		.text
  16              	.Ltext0:
  17              		.cfi_sections	.debug_frame
  18              		.section	.text.HMC5883L_Config,"ax",%progbits
  19              		.align	2
  20              		.global	HMC5883L_Config
  21              		.thumb
  22              		.thumb_func
  23              		.type	HMC5883L_Config, %function
  24              	HMC5883L_Config:
  25              	.LFB63:
  26              		.file 1 ".\\HMC5883L.c"
   1:.\HMC5883L.c  **** /* ========================================
   2:.\HMC5883L.c  ****  *
   3:.\HMC5883L.c  ****  * Copyright YOUR COMPANY, THE YEAR
   4:.\HMC5883L.c  ****  * All Rights Reserved
   5:.\HMC5883L.c  ****  * UNPUBLISHED, LICENSED SOFTWARE.
   6:.\HMC5883L.c  ****  *
   7:.\HMC5883L.c  ****  * CONFIDENTIAL AND PROPRIETARY INFORMATION
   8:.\HMC5883L.c  ****  * WHICH IS THE PROPERTY OF your company.
   9:.\HMC5883L.c  ****  *
  10:.\HMC5883L.c  ****  * ========================================
  11:.\HMC5883L.c  **** */
  12:.\HMC5883L.c  **** #include<HMC5883L.h>
  13:.\HMC5883L.c  **** #include<project.h>
  14:.\HMC5883L.c  **** /** Power on and prepare for general usage.
  15:.\HMC5883L.c  ****  * This will prepare the magnetometer with default settings, ready for single-
  16:.\HMC5883L.c  ****  * use mode (very low power requirements). Default settings include 8-sample
  17:.\HMC5883L.c  ****  * averaging, 15 Hz data output rate, normal measurement bias, a,d 1090 gain (in
  18:.\HMC5883L.c  ****  * terms of LSB/Gauss). Be sure to adjust any settings you need specifically
  19:.\HMC5883L.c  ****  * after initialization, especially the gain settings if you happen to be seeing
  20:.\HMC5883L.c  ****  * a lot of -4096 values (see the datasheet for mor information).
  21:.\HMC5883L.c  ****  */
  22:.\HMC5883L.c  **** void HMC5883L_Config()
  23:.\HMC5883L.c  **** {
  27              		.loc 1 23 0
  28              		.cfi_startproc
  29              		@ args = 0, pretend = 0, frame = 8
  30              		@ frame_needed = 0, uses_anonymous_args = 0
  31 0000 30B5     		push	{r4, r5, lr}
  32              		.cfi_def_cfa_offset 12
  33              		.cfi_offset 4, -12
  34              		.cfi_offset 5, -8
ARM GAS  C:\Users\Jorden\AppData\Local\Temp\ccG5N1sK.s 			page 2


  35              		.cfi_offset 14, -4
  36 0002 83B0     		sub	sp, sp, #12
  37              		.cfi_def_cfa_offset 24
  24:.\HMC5883L.c  ****     I2C_Start();
  38              		.loc 1 24 0
  39 0004 FFF7FEFF 		bl	I2C_Start
  40              	.LVL0:
  25:.\HMC5883L.c  ****     
  26:.\HMC5883L.c  **** 	uint8 array[2];
  27:.\HMC5883L.c  ****     array [0] = HMC5883L_RA_CONFIG_A;
  41              		.loc 1 27 0
  42 0008 0024     		movs	r4, #0
  43 000a 8DF80440 		strb	r4, [sp, #4]
  28:.\HMC5883L.c  ****     array [1] = (HMC5883L_AVERAGING_8 << (HMC5883L_CRA_AVERAGE_BIT - HMC5883L_CRA_AVERAGE_LENGTH + 
  44              		.loc 1 28 0
  45 000e 7023     		movs	r3, #112
  46 0010 8DF80530 		strb	r3, [sp, #5]
  29:.\HMC5883L.c  ****         (HMC5883L_RATE_15     << (HMC5883L_CRA_RATE_BIT - HMC5883L_CRA_RATE_LENGTH + 1)) |
  30:.\HMC5883L.c  ****         (HMC5883L_BIAS_NORMAL << (HMC5883L_CRA_BIAS_BIT - HMC5883L_CRA_BIAS_LENGTH + 1));
  31:.\HMC5883L.c  ****     I2C_MasterClearStatus();
  47              		.loc 1 31 0
  48 0014 FFF7FEFF 		bl	I2C_MasterClearStatus
  49              	.LVL1:
  32:.\HMC5883L.c  ****     I2C_MasterWriteBuf(HMC5883L_ADDRESS,array,2,I2C_MODE_COMPLETE_XFER);
  50              		.loc 1 32 0
  51 0018 1E20     		movs	r0, #30
  52 001a 01A9     		add	r1, sp, #4
  53 001c 0222     		movs	r2, #2
  54 001e 2346     		mov	r3, r4
  55 0020 FFF7FEFF 		bl	I2C_MasterWriteBuf
  56              	.LVL2:
  57              	.L2:
  33:.\HMC5883L.c  ****     while(0u == (I2C_MasterStatus() & I2C_MSTAT_RD_CMPLT));
  58              		.loc 1 33 0 discriminator 1
  59 0024 FFF7FEFF 		bl	I2C_MasterStatus
  60              	.LVL3:
  61 0028 10F0010F 		tst	r0, #1
  62 002c FAD0     		beq	.L2
  34:.\HMC5883L.c  ****     array [0] = HMC5883L_RA_MODE;
  63              		.loc 1 34 0
  64 002e 0225     		movs	r5, #2
  65 0030 8DF80450 		strb	r5, [sp, #4]
  35:.\HMC5883L.c  ****     array [1] = HMC5883L_MODE_CONTINUOUS;
  66              		.loc 1 35 0
  67 0034 0024     		movs	r4, #0
  68 0036 8DF80540 		strb	r4, [sp, #5]
  36:.\HMC5883L.c  ****     I2C_MasterClearStatus();
  69              		.loc 1 36 0
  70 003a FFF7FEFF 		bl	I2C_MasterClearStatus
  71              	.LVL4:
  37:.\HMC5883L.c  ****     I2C_MasterWriteBuf(HMC5883L_ADDRESS,array,2,I2C_MODE_COMPLETE_XFER);
  72              		.loc 1 37 0
  73 003e 1E20     		movs	r0, #30
  74 0040 01A9     		add	r1, sp, #4
  75 0042 2A46     		mov	r2, r5
  76 0044 2346     		mov	r3, r4
  77 0046 FFF7FEFF 		bl	I2C_MasterWriteBuf
ARM GAS  C:\Users\Jorden\AppData\Local\Temp\ccG5N1sK.s 			page 3


  78              	.LVL5:
  79              	.L3:
  38:.\HMC5883L.c  ****     while(0u == (I2C_MasterStatus() & I2C_MSTAT_RD_CMPLT));
  80              		.loc 1 38 0 discriminator 1
  81 004a FFF7FEFF 		bl	I2C_MasterStatus
  82              	.LVL6:
  83 004e 10F0010F 		tst	r0, #1
  84 0052 FAD0     		beq	.L3
  39:.\HMC5883L.c  **** }
  85              		.loc 1 39 0
  86 0054 03B0     		add	sp, sp, #12
  87              		@ sp needed
  88 0056 30BD     		pop	{r4, r5, pc}
  89              		.cfi_endproc
  90              	.LFE63:
  91              		.size	HMC5883L_Config, .-HMC5883L_Config
  92              		.section	.text.read_HMC5883L_reg,"ax",%progbits
  93              		.align	2
  94              		.global	read_HMC5883L_reg
  95              		.thumb
  96              		.thumb_func
  97              		.type	read_HMC5883L_reg, %function
  98              	read_HMC5883L_reg:
  99              	.LFB64:
  40:.\HMC5883L.c  **** uint8 read_HMC5883L_reg(uint8 reg)
  41:.\HMC5883L.c  **** {
 100              		.loc 1 41 0
 101              		.cfi_startproc
 102              		@ args = 0, pretend = 0, frame = 8
 103              		@ frame_needed = 0, uses_anonymous_args = 0
 104              	.LVL7:
 105 0000 00B5     		push	{lr}
 106              		.cfi_def_cfa_offset 4
 107              		.cfi_offset 14, -4
 108 0002 83B0     		sub	sp, sp, #12
 109              		.cfi_def_cfa_offset 16
  42:.\HMC5883L.c  ****     
  43:.\HMC5883L.c  ****     int16 value;
  44:.\HMC5883L.c  ****     uint8 array[2];
  45:.\HMC5883L.c  ****     array[0] = reg;
 110              		.loc 1 45 0
 111 0004 02A9     		add	r1, sp, #8
 112 0006 01F8040D 		strb	r0, [r1, #-4]!
  46:.\HMC5883L.c  ****     I2C_MasterWriteBuf(HMC5883L_ADDRESS,array,1,I2C_MODE_COMPLETE_XFER);
 113              		.loc 1 46 0
 114 000a 1E20     		movs	r0, #30
 115              	.LVL8:
 116 000c 0122     		movs	r2, #1
 117 000e 0023     		movs	r3, #0
 118 0010 FFF7FEFF 		bl	I2C_MasterWriteBuf
 119              	.LVL9:
 120              	.L7:
  47:.\HMC5883L.c  ****     while(0u == (I2C_MasterStatus() & I2C_MSTAT_RD_CMPLT));
 121              		.loc 1 47 0 discriminator 1
 122 0014 FFF7FEFF 		bl	I2C_MasterStatus
 123              	.LVL10:
 124 0018 10F0010F 		tst	r0, #1
ARM GAS  C:\Users\Jorden\AppData\Local\Temp\ccG5N1sK.s 			page 4


 125 001c FAD0     		beq	.L7
  48:.\HMC5883L.c  ****     
  49:.\HMC5883L.c  ****     I2C_MasterReadBuf(HMC5883L_ADDRESS, array, 1,I2C_MODE_COMPLETE_XFER);
 126              		.loc 1 49 0
 127 001e 1E20     		movs	r0, #30
 128 0020 01A9     		add	r1, sp, #4
 129 0022 0122     		movs	r2, #1
 130 0024 0023     		movs	r3, #0
 131 0026 FFF7FEFF 		bl	I2C_MasterReadBuf
 132              	.LVL11:
 133              	.L8:
  50:.\HMC5883L.c  ****     while(0u == (I2C_MasterStatus() & I2C_MSTAT_RD_CMPLT));
 134              		.loc 1 50 0 discriminator 1
 135 002a FFF7FEFF 		bl	I2C_MasterStatus
 136              	.LVL12:
 137 002e 10F0010F 		tst	r0, #1
 138 0032 FAD0     		beq	.L8
 139              	.LVL13:
  51:.\HMC5883L.c  ****     value = (uint16) array[0];
  52:.\HMC5883L.c  ****     return value;
  53:.\HMC5883L.c  **** }
 140              		.loc 1 53 0
 141 0034 9DF80400 		ldrb	r0, [sp, #4]	@ zero_extendqisi2
 142 0038 03B0     		add	sp, sp, #12
 143              		@ sp needed
 144 003a 5DF804FB 		ldr	pc, [sp], #4
 145              		.cfi_endproc
 146              	.LFE64:
 147              		.size	read_HMC5883L_reg, .-read_HMC5883L_reg
 148 003e 00BF     		.section	.text.write_HMC5883L_reg,"ax",%progbits
 149              		.align	2
 150              		.global	write_HMC5883L_reg
 151              		.thumb
 152              		.thumb_func
 153              		.type	write_HMC5883L_reg, %function
 154              	write_HMC5883L_reg:
 155              	.LFB65:
  54:.\HMC5883L.c  **** 
  55:.\HMC5883L.c  **** uint8 write_HMC5883L_reg(uint8 reg, uint8 data)
  56:.\HMC5883L.c  **** {
 156              		.loc 1 56 0
 157              		.cfi_startproc
 158              		@ args = 0, pretend = 0, frame = 8
 159              		@ frame_needed = 0, uses_anonymous_args = 0
 160              	.LVL14:
 161 0000 00B5     		push	{lr}
 162              		.cfi_def_cfa_offset 4
 163              		.cfi_offset 14, -4
 164 0002 83B0     		sub	sp, sp, #12
 165              		.cfi_def_cfa_offset 16
  57:.\HMC5883L.c  ****     uint8 array[2];
  58:.\HMC5883L.c  ****     array[0] = reg;
 166              		.loc 1 58 0
 167 0004 8DF80400 		strb	r0, [sp, #4]
  59:.\HMC5883L.c  ****     array[1] = data;
 168              		.loc 1 59 0
 169 0008 8DF80510 		strb	r1, [sp, #5]
ARM GAS  C:\Users\Jorden\AppData\Local\Temp\ccG5N1sK.s 			page 5


  60:.\HMC5883L.c  ****     
  61:.\HMC5883L.c  ****     I2C_MasterWriteBuf(HMC5883L_ADDRESS,array,2,I2C_MODE_COMPLETE_XFER);
 170              		.loc 1 61 0
 171 000c 1E20     		movs	r0, #30
 172              	.LVL15:
 173 000e 01A9     		add	r1, sp, #4
 174              	.LVL16:
 175 0010 0222     		movs	r2, #2
 176 0012 0023     		movs	r3, #0
 177 0014 FFF7FEFF 		bl	I2C_MasterWriteBuf
 178              	.LVL17:
 179              	.L12:
  62:.\HMC5883L.c  ****     while(0u == (I2C_MasterStatus() & I2C_MSTAT_RD_CMPLT));
 180              		.loc 1 62 0 discriminator 1
 181 0018 FFF7FEFF 		bl	I2C_MasterStatus
 182              	.LVL18:
 183 001c 10F0010F 		tst	r0, #1
 184 0020 FAD0     		beq	.L12
  63:.\HMC5883L.c  ****     
  64:.\HMC5883L.c  ****     return 0;
  65:.\HMC5883L.c  **** }
 185              		.loc 1 65 0
 186 0022 0020     		movs	r0, #0
 187 0024 03B0     		add	sp, sp, #12
 188              		@ sp needed
 189 0026 5DF804FB 		ldr	pc, [sp], #4
 190              		.cfi_endproc
 191              	.LFE65:
 192              		.size	write_HMC5883L_reg, .-write_HMC5883L_reg
 193 002a 00BF     		.section	.text.getHeading,"ax",%progbits
 194              		.align	2
 195              		.global	getHeading
 196              		.thumb
 197              		.thumb_func
 198              		.type	getHeading, %function
 199              	getHeading:
 200              	.LFB66:
  66:.\HMC5883L.c  **** uint8 testConnection();
  67:.\HMC5883L.c  **** 
  68:.\HMC5883L.c  **** //This function only works in continous mode
  69:.\HMC5883L.c  **** void getHeading(int16_t *x, int16_t *y, int16_t *z)
  70:.\HMC5883L.c  **** {
 201              		.loc 1 70 0
 202              		.cfi_startproc
 203              		@ args = 0, pretend = 0, frame = 8
 204              		@ frame_needed = 0, uses_anonymous_args = 0
 205              	.LVL19:
 206 0000 00B5     		push	{lr}
 207              		.cfi_def_cfa_offset 4
 208              		.cfi_offset 14, -4
 209 0002 83B0     		sub	sp, sp, #12
 210              		.cfi_def_cfa_offset 16
  71:.\HMC5883L.c  ****     
  72:.\HMC5883L.c  ****     uint8 array[6];
  73:.\HMC5883L.c  ****     array[0] = 0x06;
 211              		.loc 1 73 0
 212 0004 02A9     		add	r1, sp, #8
ARM GAS  C:\Users\Jorden\AppData\Local\Temp\ccG5N1sK.s 			page 6


 213              	.LVL20:
 214 0006 0623     		movs	r3, #6
 215 0008 01F8083D 		strb	r3, [r1, #-8]!
  74:.\HMC5883L.c  ****     union HMC5883L data;
  75:.\HMC5883L.c  ****     I2C_MasterWriteBuf(HMC5883L_ADDRESS,array,1,I2C_MODE_COMPLETE_XFER);
 216              		.loc 1 75 0
 217 000c 1E20     		movs	r0, #30
 218              	.LVL21:
 219 000e 6946     		mov	r1, sp
 220 0010 0122     		movs	r2, #1
 221              	.LVL22:
 222 0012 0023     		movs	r3, #0
 223 0014 FFF7FEFF 		bl	I2C_MasterWriteBuf
 224              	.LVL23:
 225              	.L15:
  76:.\HMC5883L.c  ****     while(0u == (I2C_MasterStatus() & I2C_MSTAT_RD_CMPLT));
 226              		.loc 1 76 0 discriminator 1
 227 0018 FFF7FEFF 		bl	I2C_MasterStatus
 228              	.LVL24:
 229 001c 10F0010F 		tst	r0, #1
 230 0020 FAD0     		beq	.L15
  77:.\HMC5883L.c  ****     
  78:.\HMC5883L.c  ****     I2C_MasterReadBuf(HMC5883L_ADDRESS,array,6,I2C_MODE_COMPLETE_XFER);
 231              		.loc 1 78 0
 232 0022 1E20     		movs	r0, #30
 233 0024 6946     		mov	r1, sp
 234 0026 0622     		movs	r2, #6
 235 0028 0023     		movs	r3, #0
 236 002a FFF7FEFF 		bl	I2C_MasterReadBuf
 237              	.LVL25:
 238              	.L16:
  79:.\HMC5883L.c  ****     while(0u == (I2C_MasterStatus() & I2C_MSTAT_RD_CMPLT));
 239              		.loc 1 79 0 discriminator 1
 240 002e FFF7FEFF 		bl	I2C_MasterStatus
 241              	.LVL26:
 242 0032 10F0010F 		tst	r0, #1
 243 0036 FAD0     		beq	.L16
 244              	.LVL27:
  80:.\HMC5883L.c  ****     
  81:.\HMC5883L.c  ****     *data.array = *array;
  82:.\HMC5883L.c  ****     x = &data.Data.x;
  83:.\HMC5883L.c  ****     y = &data.Data.y;
  84:.\HMC5883L.c  ****     z = &data.Data.z;
  85:.\HMC5883L.c  ****     array[0] = 0x03;
 245              		.loc 1 85 0
 246 0038 02A9     		add	r1, sp, #8
 247 003a 0323     		movs	r3, #3
 248 003c 01F8083D 		strb	r3, [r1, #-8]!
  86:.\HMC5883L.c  ****     
  87:.\HMC5883L.c  ****     I2C_MasterWriteBuf(HMC5883L_ADDRESS,array,1,I2C_MODE_COMPLETE_XFER);
 249              		.loc 1 87 0
 250 0040 1E20     		movs	r0, #30
 251 0042 6946     		mov	r1, sp
 252 0044 0122     		movs	r2, #1
 253 0046 0023     		movs	r3, #0
 254 0048 FFF7FEFF 		bl	I2C_MasterWriteBuf
 255              	.LVL28:
ARM GAS  C:\Users\Jorden\AppData\Local\Temp\ccG5N1sK.s 			page 7


 256              	.L17:
  88:.\HMC5883L.c  ****     while(0u == (I2C_MasterStatus() & I2C_MSTAT_RD_CMPLT));
 257              		.loc 1 88 0 discriminator 1
 258 004c FFF7FEFF 		bl	I2C_MasterStatus
 259              	.LVL29:
 260 0050 10F0010F 		tst	r0, #1
 261 0054 FAD0     		beq	.L17
  89:.\HMC5883L.c  **** }
 262              		.loc 1 89 0
 263 0056 03B0     		add	sp, sp, #12
 264              		@ sp needed
 265 0058 5DF804FB 		ldr	pc, [sp], #4
 266              		.cfi_endproc
 267              	.LFE66:
 268              		.size	getHeading, .-getHeading
 269              		.section	.text.getHeadingX,"ax",%progbits
 270              		.align	2
 271              		.global	getHeadingX
 272              		.thumb
 273              		.thumb_func
 274              		.type	getHeadingX, %function
 275              	getHeadingX:
 276              	.LFB67:
  90:.\HMC5883L.c  **** int16_t getHeadingX()
  91:.\HMC5883L.c  **** {
 277              		.loc 1 91 0
 278              		.cfi_startproc
 279              		@ args = 0, pretend = 0, frame = 0
 280              		@ frame_needed = 0, uses_anonymous_args = 0
 281              		@ link register save eliminated.
  92:.\HMC5883L.c  ****     
  93:.\HMC5883L.c  ****     return 0;   
  94:.\HMC5883L.c  **** }
 282              		.loc 1 94 0
 283 0000 0020     		movs	r0, #0
 284 0002 7047     		bx	lr
 285              		.cfi_endproc
 286              	.LFE67:
 287              		.size	getHeadingX, .-getHeadingX
 288              		.section	.text.getHeadingY,"ax",%progbits
 289              		.align	2
 290              		.global	getHeadingY
 291              		.thumb
 292              		.thumb_func
 293              		.type	getHeadingY, %function
 294              	getHeadingY:
 295              	.LFB68:
  95:.\HMC5883L.c  **** int16_t getHeadingY()
  96:.\HMC5883L.c  **** {
 296              		.loc 1 96 0
 297              		.cfi_startproc
 298              		@ args = 0, pretend = 0, frame = 0
 299              		@ frame_needed = 0, uses_anonymous_args = 0
 300              		@ link register save eliminated.
  97:.\HMC5883L.c  ****  
  98:.\HMC5883L.c  ****     return 0; 
  99:.\HMC5883L.c  **** }
ARM GAS  C:\Users\Jorden\AppData\Local\Temp\ccG5N1sK.s 			page 8


 301              		.loc 1 99 0
 302 0000 0020     		movs	r0, #0
 303 0002 7047     		bx	lr
 304              		.cfi_endproc
 305              	.LFE68:
 306              		.size	getHeadingY, .-getHeadingY
 307              		.section	.text.getHeadingZ,"ax",%progbits
 308              		.align	2
 309              		.global	getHeadingZ
 310              		.thumb
 311              		.thumb_func
 312              		.type	getHeadingZ, %function
 313              	getHeadingZ:
 314              	.LFB69:
 100:.\HMC5883L.c  **** int16_t getHeadingZ()
 101:.\HMC5883L.c  **** {
 315              		.loc 1 101 0
 316              		.cfi_startproc
 317              		@ args = 0, pretend = 0, frame = 0
 318              		@ frame_needed = 0, uses_anonymous_args = 0
 319              		@ link register save eliminated.
 102:.\HMC5883L.c  ****     return 0;    
 103:.\HMC5883L.c  **** }
 320              		.loc 1 103 0
 321 0000 0020     		movs	r0, #0
 322 0002 7047     		bx	lr
 323              		.cfi_endproc
 324              	.LFE69:
 325              		.size	getHeadingZ, .-getHeadingZ
 326              		.section	.text.get_HMC5883L_Data,"ax",%progbits
 327              		.align	2
 328              		.global	get_HMC5883L_Data
 329              		.thumb
 330              		.thumb_func
 331              		.type	get_HMC5883L_Data, %function
 332              	get_HMC5883L_Data:
 333              	.LFB70:
 104:.\HMC5883L.c  **** 
 105:.\HMC5883L.c  **** uint16 get_HMC5883L_Data(union HMC5883L *Data)
 106:.\HMC5883L.c  **** {
 334              		.loc 1 106 0
 335              		.cfi_startproc
 336              		@ args = 0, pretend = 0, frame = 8
 337              		@ frame_needed = 0, uses_anonymous_args = 0
 338              	.LVL30:
 339 0000 10B5     		push	{r4, lr}
 340              		.cfi_def_cfa_offset 8
 341              		.cfi_offset 4, -8
 342              		.cfi_offset 14, -4
 343 0002 82B0     		sub	sp, sp, #8
 344              		.cfi_def_cfa_offset 16
 345 0004 0446     		mov	r4, r0
 107:.\HMC5883L.c  ****     
 108:.\HMC5883L.c  ****     uint8 array[6];
 109:.\HMC5883L.c  ****     array[0] = 0x06;
 346              		.loc 1 109 0
 347 0006 02A9     		add	r1, sp, #8
ARM GAS  C:\Users\Jorden\AppData\Local\Temp\ccG5N1sK.s 			page 9


 348 0008 0623     		movs	r3, #6
 349 000a 01F8083D 		strb	r3, [r1, #-8]!
 110:.\HMC5883L.c  ****     I2C_MasterWriteBuf(HMC5883L_ADDRESS,array,1,I2C_MODE_COMPLETE_XFER);
 350              		.loc 1 110 0
 351 000e 1E20     		movs	r0, #30
 352              	.LVL31:
 353 0010 6946     		mov	r1, sp
 354 0012 0122     		movs	r2, #1
 355 0014 0023     		movs	r3, #0
 356 0016 FFF7FEFF 		bl	I2C_MasterWriteBuf
 357              	.LVL32:
 358              	.L25:
 111:.\HMC5883L.c  ****     while(0u == (I2C_MasterStatus() & I2C_MSTAT_RD_CMPLT));
 359              		.loc 1 111 0 discriminator 1
 360 001a FFF7FEFF 		bl	I2C_MasterStatus
 361              	.LVL33:
 362 001e 10F0010F 		tst	r0, #1
 363 0022 FAD0     		beq	.L25
 112:.\HMC5883L.c  ****     
 113:.\HMC5883L.c  ****     I2C_MasterReadBuf(HMC5883L_ADDRESS,array,6,I2C_MODE_COMPLETE_XFER);
 364              		.loc 1 113 0
 365 0024 1E20     		movs	r0, #30
 366 0026 6946     		mov	r1, sp
 367 0028 0622     		movs	r2, #6
 368 002a 0023     		movs	r3, #0
 369 002c FFF7FEFF 		bl	I2C_MasterReadBuf
 370              	.LVL34:
 371              	.L26:
 114:.\HMC5883L.c  ****     while(0u == (I2C_MasterStatus() & I2C_MSTAT_RD_CMPLT));
 372              		.loc 1 114 0 discriminator 1
 373 0030 FFF7FEFF 		bl	I2C_MasterStatus
 374              	.LVL35:
 375 0034 10F0010F 		tst	r0, #1
 376 0038 FAD0     		beq	.L26
 115:.\HMC5883L.c  ****     
 116:.\HMC5883L.c  ****     *Data->array = *array;
 377              		.loc 1 116 0
 378 003a 9DF80030 		ldrb	r3, [sp]	@ zero_extendqisi2
 379 003e 2370     		strb	r3, [r4]
 117:.\HMC5883L.c  ****     array[0] = 0x03;
 380              		.loc 1 117 0
 381 0040 02A9     		add	r1, sp, #8
 382 0042 0323     		movs	r3, #3
 383 0044 01F8083D 		strb	r3, [r1, #-8]!
 118:.\HMC5883L.c  ****     
 119:.\HMC5883L.c  ****     I2C_MasterWriteBuf(HMC5883L_ADDRESS,array,1,I2C_MODE_COMPLETE_XFER);
 384              		.loc 1 119 0
 385 0048 1E20     		movs	r0, #30
 386 004a 6946     		mov	r1, sp
 387 004c 0122     		movs	r2, #1
 388 004e 0023     		movs	r3, #0
 389 0050 FFF7FEFF 		bl	I2C_MasterWriteBuf
 390              	.LVL36:
 391              	.L27:
 120:.\HMC5883L.c  ****     while(0u == (I2C_MasterStatus() & I2C_MSTAT_RD_CMPLT));
 392              		.loc 1 120 0 discriminator 1
 393 0054 FFF7FEFF 		bl	I2C_MasterStatus
ARM GAS  C:\Users\Jorden\AppData\Local\Temp\ccG5N1sK.s 			page 10


 394              	.LVL37:
 395 0058 10F0010F 		tst	r0, #1
 396 005c FAD0     		beq	.L27
 121:.\HMC5883L.c  ****     return I2C_MasterStatus();
 397              		.loc 1 121 0
 398 005e FFF7FEFF 		bl	I2C_MasterStatus
 399              	.LVL38:
 122:.\HMC5883L.c  **** }
 400              		.loc 1 122 0
 401 0062 02B0     		add	sp, sp, #8
 402              		@ sp needed
 403 0064 10BD     		pop	{r4, pc}
 404              		.cfi_endproc
 405              	.LFE70:
 406              		.size	get_HMC5883L_Data, .-get_HMC5883L_Data
 407 0066 00BF     		.text
 408              	.Letext0:
 409              		.file 2 "c:\\program files (x86)\\cypress\\psoc creator\\3.2\\psoc creator\\import\\gnu\\arm\\4.8.
 410              		.file 3 "c:\\program files (x86)\\cypress\\psoc creator\\3.2\\psoc creator\\import\\gnu\\arm\\4.8.
 411              		.file 4 "Generated_Source\\PSoC5/cytypes.h"
 412              		.file 5 "./HMC5883L.h"
 413              		.file 6 "Generated_Source\\PSoC5/I2C.h"
 414              		.file 7 "Generated_Source\\PSoC5/core_cm3.h"