ARM GAS  C:\Users\Jorden\AppData\Local\Temp\ccZpFz66.s 			page 1


   1              		.syntax unified
   2              		.cpu cortex-m3
   3              		.fpu softvfp
   4              		.eabi_attribute 20, 1
   5              		.eabi_attribute 21, 1
   6              		.eabi_attribute 23, 3
   7              		.eabi_attribute 24, 1
   8              		.eabi_attribute 25, 1
   9              		.eabi_attribute 26, 1
  10              		.eabi_attribute 30, 1
  11              		.eabi_attribute 34, 1
  12              		.eabi_attribute 18, 4
  13              		.thumb
  14              		.file	"main.c"
  15              		.text
  16              	.Ltext0:
  17              		.cfi_sections	.debug_frame
  18              		.section	.text.init,"ax",%progbits
  19              		.align	2
  20              		.global	init
  21              		.thumb
  22              		.thumb_func
  23              		.type	init, %function
  24              	init:
  25              	.LFB64:
  26              		.file 1 ".\\main.c"
   1:.\main.c      **** /* ========================================
   2:.\main.c      ****  *
   3:.\main.c      ****  * Copyright YOUR COMPANY, THE YEAR
   4:.\main.c      ****  * All Rights Reserved
   5:.\main.c      ****  * UNPUBLISHED, LICENSED SOFTWARE.
   6:.\main.c      ****  *
   7:.\main.c      ****  * CONFIDENTIAL AND PROPRIETARY INFORMATION
   8:.\main.c      ****  * WHICH IS THE PROPERTY OF your company.
   9:.\main.c      ****  *
  10:.\main.c      ****  * ========================================
  11:.\main.c      **** */
  12:.\main.c      **** #include <project.h>
  13:.\main.c      **** #include "HMC5883L.h"
  14:.\main.c      **** #include "motordriver.h"
  15:.\main.c      **** #include "Servo_Driver.h"
  16:.\main.c      **** 
  17:.\main.c      **** void init();
  18:.\main.c      **** void servo_test(int duration,struct Servo s1);
  19:.\main.c      **** void uart_test();
  20:.\main.c      **** void i2c_test();
  21:.\main.c      **** int main()
  22:.\main.c      **** {
  23:.\main.c      ****    CyGlobalIntEnable; /* Enable global interrupts. */
  24:.\main.c      **** init();
  25:.\main.c      ****     /* Place your initialization/startup code here (e.g. MyInst_Start()) */
  26:.\main.c      ****     uart_test();
  27:.\main.c      ****     for(;;);
  28:.\main.c      **** }
  29:.\main.c      **** void init()
  30:.\main.c      **** {
  27              		.loc 1 30 0
ARM GAS  C:\Users\Jorden\AppData\Local\Temp\ccZpFz66.s 			page 2


  28              		.cfi_startproc
  29              		@ args = 0, pretend = 0, frame = 0
  30              		@ frame_needed = 0, uses_anonymous_args = 0
  31 0000 08B5     		push	{r3, lr}
  32              		.cfi_def_cfa_offset 8
  33              		.cfi_offset 3, -8
  34              		.cfi_offset 14, -4
  31:.\main.c      ****     //EN_B_PWM_Start();
  32:.\main.c      ****     //EN_A_PWM_Start();
  33:.\main.c      ****     //Servo_A_Start();
  34:.\main.c      ****     //Servo_B_Start();
  35:.\main.c      ****     I2C_Start();
  35              		.loc 1 35 0
  36 0002 FFF7FEFF 		bl	I2C_Start
  37              	.LVL0:
  36:.\main.c      ****     UART_Start();
  38              		.loc 1 36 0
  39 0006 FFF7FEFF 		bl	UART_Start
  40              	.LVL1:
  41 000a 08BD     		pop	{r3, pc}
  42              		.cfi_endproc
  43              	.LFE64:
  44              		.size	init, .-init
  45              		.section	.text.servo_test,"ax",%progbits
  46              		.align	2
  47              		.global	servo_test
  48              		.thumb
  49              		.thumb_func
  50              		.type	servo_test, %function
  51              	servo_test:
  52              	.LFB65:
  37:.\main.c      **** }
  38:.\main.c      **** void servo_test(int duration,struct Servo s1)
  39:.\main.c      **** {  
  53              		.loc 1 39 0
  54              		.cfi_startproc
  55              		@ args = 0, pretend = 0, frame = 8
  56              		@ frame_needed = 0, uses_anonymous_args = 0
  57              	.LVL2:
  58 0000 2DE9F041 		push	{r4, r5, r6, r7, r8, lr}
  59              		.cfi_def_cfa_offset 24
  60              		.cfi_offset 4, -24
  61              		.cfi_offset 5, -20
  62              		.cfi_offset 6, -16
  63              		.cfi_offset 7, -12
  64              		.cfi_offset 8, -8
  65              		.cfi_offset 14, -4
  66 0004 82B0     		sub	sp, sp, #8
  67              		.cfi_def_cfa_offset 32
  68 0006 0646     		mov	r6, r0
  69 0008 02AB     		add	r3, sp, #8
  70 000a 03E90600 		stmdb	r3, {r1, r2}
  71              	.LVL3:
  40:.\main.c      ****     int16 pos;
  41:.\main.c      ****     int i;
  42:.\main.c      ****     for(i = 0; i < duration; i++)
  72              		.loc 1 42 0
ARM GAS  C:\Users\Jorden\AppData\Local\Temp\ccZpFz66.s 			page 3


  73 000e 0025     		movs	r5, #0
  74 0010 2F46     		mov	r7, r5
  75 0012 24E0     		b	.L3
  76              	.LVL4:
  77              	.L4:
  43:.\main.c      ****     {
  44:.\main.c      ****         for(pos = 0; pos <= 180; pos = pos +10)
  45:.\main.c      ****         {
  46:.\main.c      ****             set_position(pos, &s1);
  78              		.loc 1 46 0 discriminator 2
  79 0014 9CB2     		uxth	r4, r3
  80 0016 2046     		mov	r0, r4
  81 0018 00A9     		add	r1, sp, #0
  82 001a FFF7FEFF 		bl	set_position
  83              	.LVL5:
  47:.\main.c      ****             CyDelay(100);
  84              		.loc 1 47 0 discriminator 2
  85 001e 4046     		mov	r0, r8
  86 0020 FFF7FEFF 		bl	CyDelay
  87              	.LVL6:
  44:.\main.c      ****         for(pos = 0; pos <= 180; pos = pos +10)
  88              		.loc 1 44 0 discriminator 2
  89 0024 04F10A03 		add	r3, r4, #10
  90 0028 9BB2     		uxth	r3, r3
  91              	.LVL7:
  92 002a 02E0     		b	.L7
  93              	.LVL8:
  94              	.L8:
  95 002c 3B46     		mov	r3, r7
  96              		.loc 1 47 0
  97 002e 4FF06408 		mov	r8, #100
  98              	.L7:
  99              	.LVL9:
  44:.\main.c      ****         for(pos = 0; pos <= 180; pos = pos +10)
 100              		.loc 1 44 0 discriminator 1
 101 0032 1AB2     		sxth	r2, r3
 102 0034 B42A     		cmp	r2, #180
 103 0036 EDDD     		ble	.L4
 104 0038 B423     		movs	r3, #180
 105              	.LVL10:
  48:.\main.c      ****         }
  49:.\main.c      ****         for(pos = 180; pos >= 0; pos = pos -10)
  50:.\main.c      ****         {
  51:.\main.c      ****             set_position(pos, &s1);
  52:.\main.c      ****             CyDelay(100);
 106              		.loc 1 52 0
 107 003a 4FF06408 		mov	r8, #100
 108 003e 0AE0     		b	.L5
 109              	.LVL11:
 110              	.L6:
  51:.\main.c      ****             set_position(pos, &s1);
 111              		.loc 1 51 0 discriminator 2
 112 0040 9CB2     		uxth	r4, r3
 113 0042 2046     		mov	r0, r4
 114 0044 00A9     		add	r1, sp, #0
 115 0046 FFF7FEFF 		bl	set_position
 116              	.LVL12:
ARM GAS  C:\Users\Jorden\AppData\Local\Temp\ccZpFz66.s 			page 4


 117              		.loc 1 52 0 discriminator 2
 118 004a 4046     		mov	r0, r8
 119 004c FFF7FEFF 		bl	CyDelay
 120              	.LVL13:
  49:.\main.c      ****         for(pos = 180; pos >= 0; pos = pos -10)
 121              		.loc 1 49 0 discriminator 2
 122 0050 A4F10A03 		sub	r3, r4, #10
 123 0054 9BB2     		uxth	r3, r3
 124              	.LVL14:
 125              	.L5:
  49:.\main.c      ****         for(pos = 180; pos >= 0; pos = pos -10)
 126              		.loc 1 49 0 is_stmt 0 discriminator 1
 127 0056 13F4004F 		tst	r3, #32768
 128 005a F1D0     		beq	.L6
  42:.\main.c      ****     for(i = 0; i < duration; i++)
 129              		.loc 1 42 0 is_stmt 1
 130 005c 0135     		adds	r5, r5, #1
 131              	.LVL15:
 132              	.L3:
  42:.\main.c      ****     for(i = 0; i < duration; i++)
 133              		.loc 1 42 0 is_stmt 0 discriminator 1
 134 005e B542     		cmp	r5, r6
 135 0060 E4DB     		blt	.L8
  53:.\main.c      ****         }
  54:.\main.c      ****     }
  55:.\main.c      **** }
 136              		.loc 1 55 0 is_stmt 1
 137 0062 02B0     		add	sp, sp, #8
 138              		@ sp needed
 139 0064 BDE8F081 		pop	{r4, r5, r6, r7, r8, pc}
 140              		.cfi_endproc
 141              	.LFE65:
 142              		.size	servo_test, .-servo_test
 143              		.section	.text.uart_test,"ax",%progbits
 144              		.align	2
 145              		.global	uart_test
 146              		.thumb
 147              		.thumb_func
 148              		.type	uart_test, %function
 149              	uart_test:
 150              	.LFB66:
  56:.\main.c      **** void uart_test()
  57:.\main.c      **** {   
 151              		.loc 1 57 0
 152              		.cfi_startproc
 153              		@ args = 0, pretend = 0, frame = 0
 154              		@ frame_needed = 0, uses_anonymous_args = 0
 155 0000 08B5     		push	{r3, lr}
 156              		.cfi_def_cfa_offset 8
 157              		.cfi_offset 3, -8
 158              		.cfi_offset 14, -4
 159              	.LVL16:
  58:.\main.c      ****     uint16 num;
  59:.\main.c      ****     int i =0;
  60:.\main.c      ****     char *buff;
  61:.\main.c      ****     UART_ClearRxBuffer();
 160              		.loc 1 61 0
ARM GAS  C:\Users\Jorden\AppData\Local\Temp\ccZpFz66.s 			page 5


 161 0002 FFF7FEFF 		bl	UART_ClearRxBuffer
 162              	.LVL17:
  62:.\main.c      ****     UART_PutString("Hello World. This is an UART TEST can you see me.");
 163              		.loc 1 62 0
 164 0006 0848     		ldr	r0, .L14
 165 0008 FFF7FEFF 		bl	UART_PutString
 166              	.LVL18:
  63:.\main.c      ****     UART_PutString("Please send me data and I will Echo it back");
 167              		.loc 1 63 0
 168 000c 0748     		ldr	r0, .L14+4
 169 000e FFF7FEFF 		bl	UART_PutString
 170              	.LVL19:
 171 0012 03E0     		b	.L13
 172              	.L11:
  64:.\main.c      ****     for(;;)
  65:.\main.c      ****     {
  66:.\main.c      ****         while(UART_GetRxBufferSize() == 1){
  67:.\main.c      ****         UART_WriteTxData(UART_GetChar());
 173              		.loc 1 67 0
 174 0014 FFF7FEFF 		bl	UART_GetChar
 175              	.LVL20:
 176 0018 FFF7FEFF 		bl	UART_WriteTxData
 177              	.LVL21:
 178              	.L13:
  66:.\main.c      ****         while(UART_GetRxBufferSize() == 1){
 179              		.loc 1 66 0 discriminator 1
 180 001c FFF7FEFF 		bl	UART_GetRxBufferSize
 181              	.LVL22:
 182 0020 0128     		cmp	r0, #1
 183 0022 F7D0     		beq	.L11
 184 0024 FAE7     		b	.L13
 185              	.L15:
 186 0026 00BF     		.align	2
 187              	.L14:
 188 0028 00000000 		.word	.LC0
 189 002c 34000000 		.word	.LC1
 190              		.cfi_endproc
 191              	.LFE66:
 192              		.size	uart_test, .-uart_test
 193              		.section	.text.main,"ax",%progbits
 194              		.align	2
 195              		.global	main
 196              		.thumb
 197              		.thumb_func
 198              		.type	main, %function
 199              	main:
 200              	.LFB63:
  22:.\main.c      **** {
 201              		.loc 1 22 0
 202              		.cfi_startproc
 203              		@ Volatile: function does not return.
 204              		@ args = 0, pretend = 0, frame = 0
 205              		@ frame_needed = 0, uses_anonymous_args = 0
 206 0000 08B5     		push	{r3, lr}
 207              		.cfi_def_cfa_offset 8
 208              		.cfi_offset 3, -8
 209              		.cfi_offset 14, -4
ARM GAS  C:\Users\Jorden\AppData\Local\Temp\ccZpFz66.s 			page 6


  23:.\main.c      ****    CyGlobalIntEnable; /* Enable global interrupts. */
 210              		.loc 1 23 0
 211              	@ 23 ".\main.c" 1
 212 0002 62B6     		CPSIE   i
 213              	@ 0 "" 2
  24:.\main.c      **** init();
 214              		.loc 1 24 0
 215              		.thumb
 216 0004 FFF7FEFF 		bl	init
 217              	.LVL23:
  26:.\main.c      ****     uart_test();
 218              		.loc 1 26 0
 219 0008 FFF7FEFF 		bl	uart_test
 220              	.LVL24:
 221              		.cfi_endproc
 222              	.LFE63:
 223              		.size	main, .-main
 224              		.section	.rodata.str1.4,"aMS",%progbits,1
 225              		.align	2
 226              	.LC0:
 227 0000 48656C6C 		.ascii	"Hello World. This is an UART TEST can you see me.\000"
 227      6F20576F 
 227      726C642E 
 227      20546869 
 227      73206973 
 228 0032 0000     		.space	2
 229              	.LC1:
 230 0034 506C6561 		.ascii	"Please send me data and I will Echo it back\000"
 230      73652073 
 230      656E6420 
 230      6D652064 
 230      61746120 
 231              		.text
 232              	.Letext0:
 233              		.file 2 "c:\\program files (x86)\\cypress\\psoc creator\\3.2\\psoc creator\\import\\gnu\\arm\\4.8.
 234              		.file 3 "c:\\program files (x86)\\cypress\\psoc creator\\3.2\\psoc creator\\import\\gnu\\arm\\4.8.
 235              		.file 4 "Generated_Source\\PSoC5/cytypes.h"
 236              		.file 5 ".\\Servo_Driver.h"
 237              		.file 6 "Generated_Source\\PSoC5/I2C.h"
 238              		.file 7 "Generated_Source\\PSoC5/UART.h"
 239              		.file 8 "Generated_Source\\PSoC5/CyLib.h"
 240              		.file 9 "Generated_Source\\PSoC5/core_cm3.h"