ARM GAS  C:\Users\Jorden\AppData\Local\Temp\cc5CDiaZ.s 			page 1


   1              		.syntax unified
   2              		.cpu cortex-m3
   3              		.fpu softvfp
   4              		.eabi_attribute 20, 1
   5              		.eabi_attribute 21, 1
   6              		.eabi_attribute 23, 3
   7              		.eabi_attribute 24, 1
   8              		.eabi_attribute 25, 1
   9              		.eabi_attribute 26, 1
  10              		.eabi_attribute 30, 1
  11              		.eabi_attribute 34, 1
  12              		.eabi_attribute 18, 4
  13              		.thumb
  14              		.file	"motordriver.c"
  15              		.text
  16              	.Ltext0:
  17              		.cfi_sections	.debug_frame
  18              		.section	.text.setSpeed,"ax",%progbits
  19              		.align	2
  20              		.global	setSpeed
  21              		.thumb
  22              		.thumb_func
  23              		.type	setSpeed, %function
  24              	setSpeed:
  25              	.LFB63:
  26              		.file 1 ".\\motordriver.c"
   1:.\motordriver.c **** /* ========================================
   2:.\motordriver.c ****  *
   3:.\motordriver.c ****  * Copyright YOUR COMPANY, THE YEAR
   4:.\motordriver.c ****  * All Rights Reserved
   5:.\motordriver.c ****  * UNPUBLISHED, LICENSED SOFTWARE.
   6:.\motordriver.c ****  *
   7:.\motordriver.c ****  * CONFIDENTIAL AND PROPRIETARY INFORMATION
   8:.\motordriver.c ****  * WHICH IS THE PROPERTY OF your company.
   9:.\motordriver.c ****  *
  10:.\motordriver.c ****  * ========================================
  11:.\motordriver.c **** */
  12:.\motordriver.c **** #include"motordriver.h"
  13:.\motordriver.c **** #include"project.h"
  14:.\motordriver.c **** 
  15:.\motordriver.c **** void setSpeed(uint16 speed, uint8_t motorID)
  16:.\motordriver.c **** {
  27              		.loc 1 16 0
  28              		.cfi_startproc
  29              		@ args = 0, pretend = 0, frame = 0
  30              		@ frame_needed = 0, uses_anonymous_args = 0
  31              	.LVL0:
  32 0000 08B5     		push	{r3, lr}
  33              		.cfi_def_cfa_offset 8
  34              		.cfi_offset 3, -8
  35              		.cfi_offset 14, -4
  17:.\motordriver.c ****     if(motorID == MOTOR_A)
  36              		.loc 1 17 0
  37 0002 11B9     		cbnz	r1, .L2
  18:.\motordriver.c ****     {
  19:.\motordriver.c ****         EN_A_PWM_WriteCompare(speed);
  38              		.loc 1 19 0
ARM GAS  C:\Users\Jorden\AppData\Local\Temp\cc5CDiaZ.s 			page 2


  39 0004 FFF7FEFF 		bl	EN_A_PWM_WriteCompare
  40              	.LVL1:
  41 0008 08BD     		pop	{r3, pc}
  42              	.LVL2:
  43              	.L2:
  20:.\motordriver.c ****     } 
  21:.\motordriver.c ****     else
  22:.\motordriver.c ****     {
  23:.\motordriver.c ****         EN_B_PWM_WriteCompare(speed);
  44              		.loc 1 23 0
  45 000a FFF7FEFF 		bl	EN_B_PWM_WriteCompare
  46              	.LVL3:
  47 000e 08BD     		pop	{r3, pc}
  48              		.cfi_endproc
  49              	.LFE63:
  50              		.size	setSpeed, .-setSpeed
  51              		.section	.text.setDirection,"ax",%progbits
  52              		.align	2
  53              		.global	setDirection
  54              		.thumb
  55              		.thumb_func
  56              		.type	setDirection, %function
  57              	setDirection:
  58              	.LFB64:
  24:.\motordriver.c ****     }
  25:.\motordriver.c **** }
  26:.\motordriver.c **** void setDirection(uint8_t direction, uint8_t motorID)
  27:.\motordriver.c **** {
  59              		.loc 1 27 0
  60              		.cfi_startproc
  61              		@ args = 0, pretend = 0, frame = 0
  62              		@ frame_needed = 0, uses_anonymous_args = 0
  63              	.LVL4:
  64 0000 10B5     		push	{r4, lr}
  65              		.cfi_def_cfa_offset 8
  66              		.cfi_offset 4, -8
  67              		.cfi_offset 14, -4
  68 0002 0446     		mov	r4, r0
  28:.\motordriver.c ****     uint8_t temp;
  29:.\motordriver.c ****     
  30:.\motordriver.c ****     if(motorID == MOTOR_A)
  69              		.loc 1 30 0
  70 0004 39B9     		cbnz	r1, .L5
  31:.\motordriver.c ****     {
  32:.\motordriver.c ****         temp = Motor_A_Read();
  71              		.loc 1 32 0
  72 0006 FFF7FEFF 		bl	Motor_A_Read
  73              	.LVL5:
  33:.\motordriver.c ****         temp = temp & 0x1;
  74              		.loc 1 33 0
  75 000a 00F00100 		and	r0, r0, #1
  76              	.LVL6:
  34:.\motordriver.c ****         temp = temp | direction;
  35:.\motordriver.c ****         Motor_A_Write(temp);
  77              		.loc 1 35 0
  78 000e 2043     		orrs	r0, r0, r4
  79              	.LVL7:
ARM GAS  C:\Users\Jorden\AppData\Local\Temp\cc5CDiaZ.s 			page 3


  80 0010 FFF7FEFF 		bl	Motor_A_Write
  81              	.LVL8:
  82 0014 10BD     		pop	{r4, pc}
  83              	.LVL9:
  84              	.L5:
  36:.\motordriver.c ****     }
  37:.\motordriver.c ****     else
  38:.\motordriver.c ****     {
  39:.\motordriver.c ****         temp = Motor_B_Read();
  85              		.loc 1 39 0
  86 0016 FFF7FEFF 		bl	Motor_B_Read
  87              	.LVL10:
  40:.\motordriver.c ****         temp = temp & 0x1;
  88              		.loc 1 40 0
  89 001a 00F00100 		and	r0, r0, #1
  90              	.LVL11:
  41:.\motordriver.c ****         temp = temp | direction;
  42:.\motordriver.c ****         Motor_B_Write(temp);    
  91              		.loc 1 42 0
  92 001e 2043     		orrs	r0, r0, r4
  93              	.LVL12:
  94 0020 FFF7FEFF 		bl	Motor_B_Write
  95              	.LVL13:
  96 0024 10BD     		pop	{r4, pc}
  97              		.cfi_endproc
  98              	.LFE64:
  99              		.size	setDirection, .-setDirection
 100 0026 00BF     		.section	.text.rotateMotor,"ax",%progbits
 101              		.align	2
 102              		.global	rotateMotor
 103              		.thumb
 104              		.thumb_func
 105              		.type	rotateMotor, %function
 106              	rotateMotor:
 107              	.LFB65:
  43:.\motordriver.c ****     }
  44:.\motordriver.c **** }
  45:.\motordriver.c **** void rotateMotor(uint8_t direction, uint8_t motorID)
  46:.\motordriver.c **** {
 108              		.loc 1 46 0
 109              		.cfi_startproc
 110              		@ args = 0, pretend = 0, frame = 0
 111              		@ frame_needed = 0, uses_anonymous_args = 0
 112              	.LVL14:
 113 0000 08B5     		push	{r3, lr}
 114              		.cfi_def_cfa_offset 8
 115              		.cfi_offset 3, -8
 116              		.cfi_offset 14, -4
 117              	.LVL15:
  47:.\motordriver.c ****     uint8_t temp = 0x1;
  48:.\motordriver.c ****     if(motorID == MOTOR_A)
 118              		.loc 1 48 0
 119 0002 21B9     		cbnz	r1, .L8
 120              	.LVL16:
  49:.\motordriver.c ****     {
  50:.\motordriver.c ****         
  51:.\motordriver.c ****         temp = temp | direction;
ARM GAS  C:\Users\Jorden\AppData\Local\Temp\cc5CDiaZ.s 			page 4


  52:.\motordriver.c ****         Motor_A_Write(temp);        
 121              		.loc 1 52 0
 122 0004 40F00100 		orr	r0, r0, #1
 123              	.LVL17:
 124 0008 FFF7FEFF 		bl	Motor_A_Write
 125              	.LVL18:
 126 000c 08BD     		pop	{r3, pc}
 127              	.LVL19:
 128              	.L8:
  53:.\motordriver.c ****     }
  54:.\motordriver.c ****     else
  55:.\motordriver.c ****     {
  56:.\motordriver.c ****         
  57:.\motordriver.c ****         temp = temp | direction;
  58:.\motordriver.c ****         Motor_B_Write(temp);
 129              		.loc 1 58 0
 130 000e 40F00100 		orr	r0, r0, #1
 131              	.LVL20:
 132 0012 FFF7FEFF 		bl	Motor_B_Write
 133              	.LVL21:
 134 0016 08BD     		pop	{r3, pc}
 135              		.cfi_endproc
 136              	.LFE65:
 137              		.size	rotateMotor, .-rotateMotor
 138              		.section	.text.goForward,"ax",%progbits
 139              		.align	2
 140              		.global	goForward
 141              		.thumb
 142              		.thumb_func
 143              		.type	goForward, %function
 144              	goForward:
 145              	.LFB66:
  59:.\motordriver.c ****     }
  60:.\motordriver.c **** }
  61:.\motordriver.c **** void goForward()
  62:.\motordriver.c **** {
 146              		.loc 1 62 0
 147              		.cfi_startproc
 148              		@ args = 0, pretend = 0, frame = 0
 149              		@ frame_needed = 0, uses_anonymous_args = 0
 150 0000 08B5     		push	{r3, lr}
 151              		.cfi_def_cfa_offset 8
 152              		.cfi_offset 3, -8
 153              		.cfi_offset 14, -4
  63:.\motordriver.c ****      rotateMotor(ANTICLOCKWISE,MOTOR_A);
 154              		.loc 1 63 0
 155 0002 0420     		movs	r0, #4
 156 0004 0021     		movs	r1, #0
 157 0006 FFF7FEFF 		bl	rotateMotor
 158              	.LVL22:
  64:.\motordriver.c ****      rotateMotor(ANTICLOCKWISE,MOTOR_B);  
 159              		.loc 1 64 0
 160 000a 0420     		movs	r0, #4
 161 000c 0121     		movs	r1, #1
 162 000e FFF7FEFF 		bl	rotateMotor
 163              	.LVL23:
 164 0012 08BD     		pop	{r3, pc}
ARM GAS  C:\Users\Jorden\AppData\Local\Temp\cc5CDiaZ.s 			page 5


 165              		.cfi_endproc
 166              	.LFE66:
 167              		.size	goForward, .-goForward
 168              		.section	.text.goBackward,"ax",%progbits
 169              		.align	2
 170              		.global	goBackward
 171              		.thumb
 172              		.thumb_func
 173              		.type	goBackward, %function
 174              	goBackward:
 175              	.LFB67:
  65:.\motordriver.c **** }
  66:.\motordriver.c **** void goBackward()
  67:.\motordriver.c **** {
 176              		.loc 1 67 0
 177              		.cfi_startproc
 178              		@ args = 0, pretend = 0, frame = 0
 179              		@ frame_needed = 0, uses_anonymous_args = 0
 180 0000 08B5     		push	{r3, lr}
 181              		.cfi_def_cfa_offset 8
 182              		.cfi_offset 3, -8
 183              		.cfi_offset 14, -4
  68:.\motordriver.c ****      rotateMotor(CLOCKWISE,MOTOR_A);
 184              		.loc 1 68 0
 185 0002 0220     		movs	r0, #2
 186 0004 0021     		movs	r1, #0
 187 0006 FFF7FEFF 		bl	rotateMotor
 188              	.LVL24:
  69:.\motordriver.c ****      rotateMotor(CLOCKWISE,MOTOR_B); 
 189              		.loc 1 69 0
 190 000a 0220     		movs	r0, #2
 191 000c 0121     		movs	r1, #1
 192 000e FFF7FEFF 		bl	rotateMotor
 193              	.LVL25:
 194 0012 08BD     		pop	{r3, pc}
 195              		.cfi_endproc
 196              	.LFE67:
 197              		.size	goBackward, .-goBackward
 198              		.section	.text.goLeft,"ax",%progbits
 199              		.align	2
 200              		.global	goLeft
 201              		.thumb
 202              		.thumb_func
 203              		.type	goLeft, %function
 204              	goLeft:
 205              	.LFB68:
  70:.\motordriver.c **** }
  71:.\motordriver.c **** void goLeft()
  72:.\motordriver.c **** {
 206              		.loc 1 72 0
 207              		.cfi_startproc
 208              		@ args = 0, pretend = 0, frame = 0
 209              		@ frame_needed = 0, uses_anonymous_args = 0
 210 0000 08B5     		push	{r3, lr}
 211              		.cfi_def_cfa_offset 8
 212              		.cfi_offset 3, -8
 213              		.cfi_offset 14, -4
ARM GAS  C:\Users\Jorden\AppData\Local\Temp\cc5CDiaZ.s 			page 6


  73:.\motordriver.c ****     rotateMotor(CLOCKWISE,MOTOR_A);
 214              		.loc 1 73 0
 215 0002 0220     		movs	r0, #2
 216 0004 0021     		movs	r1, #0
 217 0006 FFF7FEFF 		bl	rotateMotor
 218              	.LVL26:
  74:.\motordriver.c ****     rotateMotor(ANTICLOCKWISE, MOTOR_B);
 219              		.loc 1 74 0
 220 000a 0420     		movs	r0, #4
 221 000c 0121     		movs	r1, #1
 222 000e FFF7FEFF 		bl	rotateMotor
 223              	.LVL27:
 224 0012 08BD     		pop	{r3, pc}
 225              		.cfi_endproc
 226              	.LFE68:
 227              		.size	goLeft, .-goLeft
 228              		.section	.text.goRight,"ax",%progbits
 229              		.align	2
 230              		.global	goRight
 231              		.thumb
 232              		.thumb_func
 233              		.type	goRight, %function
 234              	goRight:
 235              	.LFB69:
  75:.\motordriver.c **** }
  76:.\motordriver.c **** void goRight()
  77:.\motordriver.c **** {
 236              		.loc 1 77 0
 237              		.cfi_startproc
 238              		@ args = 0, pretend = 0, frame = 0
 239              		@ frame_needed = 0, uses_anonymous_args = 0
 240 0000 08B5     		push	{r3, lr}
 241              		.cfi_def_cfa_offset 8
 242              		.cfi_offset 3, -8
 243              		.cfi_offset 14, -4
  78:.\motordriver.c ****     rotateMotor(CLOCKWISE,MOTOR_B);
 244              		.loc 1 78 0
 245 0002 0220     		movs	r0, #2
 246 0004 0121     		movs	r1, #1
 247 0006 FFF7FEFF 		bl	rotateMotor
 248              	.LVL28:
  79:.\motordriver.c ****     rotateMotor(ANTICLOCKWISE, MOTOR_A);
 249              		.loc 1 79 0
 250 000a 0420     		movs	r0, #4
 251 000c 0021     		movs	r1, #0
 252 000e FFF7FEFF 		bl	rotateMotor
 253              	.LVL29:
 254 0012 08BD     		pop	{r3, pc}
 255              		.cfi_endproc
 256              	.LFE69:
 257              		.size	goRight, .-goRight
 258              		.section	.text.stop_all,"ax",%progbits
 259              		.align	2
 260              		.global	stop_all
 261              		.thumb
 262              		.thumb_func
 263              		.type	stop_all, %function
ARM GAS  C:\Users\Jorden\AppData\Local\Temp\cc5CDiaZ.s 			page 7


 264              	stop_all:
 265              	.LFB70:
  80:.\motordriver.c **** }
  81:.\motordriver.c **** void stop_all()
  82:.\motordriver.c **** {
 266              		.loc 1 82 0
 267              		.cfi_startproc
 268              		@ args = 0, pretend = 0, frame = 0
 269              		@ frame_needed = 0, uses_anonymous_args = 0
 270 0000 08B5     		push	{r3, lr}
 271              		.cfi_def_cfa_offset 8
 272              		.cfi_offset 3, -8
 273              		.cfi_offset 14, -4
  83:.\motordriver.c ****     Motor_A_Write(0);
 274              		.loc 1 83 0
 275 0002 0020     		movs	r0, #0
 276 0004 FFF7FEFF 		bl	Motor_A_Write
 277              	.LVL30:
  84:.\motordriver.c ****     Motor_B_Write(0);
 278              		.loc 1 84 0
 279 0008 0020     		movs	r0, #0
 280 000a FFF7FEFF 		bl	Motor_B_Write
 281              	.LVL31:
 282 000e 08BD     		pop	{r3, pc}
 283              		.cfi_endproc
 284              	.LFE70:
 285              		.size	stop_all, .-stop_all
 286              		.section	.text.stop,"ax",%progbits
 287              		.align	2
 288              		.global	stop
 289              		.thumb
 290              		.thumb_func
 291              		.type	stop, %function
 292              	stop:
 293              	.LFB71:
  85:.\motordriver.c **** }
  86:.\motordriver.c **** void stop(uint8_t motorID)
  87:.\motordriver.c **** {
 294              		.loc 1 87 0
 295              		.cfi_startproc
 296              		@ args = 0, pretend = 0, frame = 0
 297              		@ frame_needed = 0, uses_anonymous_args = 0
 298              	.LVL32:
 299 0000 08B5     		push	{r3, lr}
 300              		.cfi_def_cfa_offset 8
 301              		.cfi_offset 3, -8
 302              		.cfi_offset 14, -4
  88:.\motordriver.c ****     if(motorID == MOTOR_A)
 303              		.loc 1 88 0
 304 0002 10B9     		cbnz	r0, .L16
  89:.\motordriver.c ****     {
  90:.\motordriver.c ****         Motor_A_Write(0);
 305              		.loc 1 90 0
 306 0004 FFF7FEFF 		bl	Motor_A_Write
 307              	.LVL33:
 308 0008 08BD     		pop	{r3, pc}
 309              	.LVL34:
ARM GAS  C:\Users\Jorden\AppData\Local\Temp\cc5CDiaZ.s 			page 8


 310              	.L16:
  91:.\motordriver.c ****     }
  92:.\motordriver.c ****     else
  93:.\motordriver.c ****     {
  94:.\motordriver.c ****         Motor_B_Write(0);   
 311              		.loc 1 94 0
 312 000a 0020     		movs	r0, #0
 313              	.LVL35:
 314 000c FFF7FEFF 		bl	Motor_B_Write
 315              	.LVL36:
 316 0010 08BD     		pop	{r3, pc}
 317              		.cfi_endproc
 318              	.LFE71:
 319              		.size	stop, .-stop
 320 0012 00BF     		.text
 321              	.Letext0:
 322              		.file 2 "c:\\program files (x86)\\cypress\\psoc creator\\3.2\\psoc creator\\import\\gnu\\arm\\4.8.
 323              		.file 3 "c:\\program files (x86)\\cypress\\psoc creator\\3.2\\psoc creator\\import\\gnu\\arm\\4.8.
 324              		.file 4 "Generated_Source\\PSoC5/cytypes.h"
 325              		.file 5 "Generated_Source\\PSoC5/EN_A_PWM.h"
 326              		.file 6 "Generated_Source\\PSoC5/EN_B_PWM.h"
 327              		.file 7 "Generated_Source\\PSoC5/Motor_A.h"
 328              		.file 8 "Generated_Source\\PSoC5/Motor_B.h"
 329              		.file 9 "Generated_Source\\PSoC5/core_cm3.h"