ARM GAS  C:\Users\Jorden\AppData\Local\Temp\ccljD20g.s 			page 1


   1              		.syntax unified
   2              		.cpu cortex-m3
   3              		.fpu softvfp
   4              		.eabi_attribute 20, 1
   5              		.eabi_attribute 21, 1
   6              		.eabi_attribute 23, 3
   7              		.eabi_attribute 24, 1
   8              		.eabi_attribute 25, 1
   9              		.eabi_attribute 26, 1
  10              		.eabi_attribute 30, 1
  11              		.eabi_attribute 34, 1
  12              		.eabi_attribute 18, 4
  13              		.thumb
  14              		.file	"Servo_Driver.c"
  15              		.text
  16              	.Ltext0:
  17              		.cfi_sections	.debug_frame
  18              		.global	__aeabi_d2uiz
  19              		.global	__aeabi_ui2d
  20              		.global	__aeabi_dmul
  21              		.global	__aeabi_ddiv
  22              		.global	__aeabi_dadd
  23              		.section	.text.set_position,"ax",%progbits
  24              		.align	2
  25              		.global	set_position
  26              		.thumb
  27              		.thumb_func
  28              		.type	set_position, %function
  29              	set_position:
  30              	.LFB63:
  31              		.file 1 ".\\Servo_Driver.c"
   1:.\Servo_Driver.c **** /* ========================================
   2:.\Servo_Driver.c ****  *
   3:.\Servo_Driver.c ****  * Copyright YOUR COMPANY, THE YEAR
   4:.\Servo_Driver.c ****  * All Rights Reserved
   5:.\Servo_Driver.c ****  * UNPUBLISHED, LICENSED SOFTWARE.
   6:.\Servo_Driver.c ****  *
   7:.\Servo_Driver.c ****  * CONFIDENTIAL AND PROPRIETARY INFORMATION
   8:.\Servo_Driver.c ****  * WHICH IS THE PROPERTY OF your company.
   9:.\Servo_Driver.c ****  *
  10:.\Servo_Driver.c ****  * ========================================
  11:.\Servo_Driver.c **** */
  12:.\Servo_Driver.c **** #include "Servo_Driver.h"
  13:.\Servo_Driver.c **** #include"project.h"
  14:.\Servo_Driver.c **** /* this will right the new position of the servo
  15:.\Servo_Driver.c ****  * The PWM Block is used to create a pluse every 20ms.
  16:.\Servo_Driver.c ****  * The compare value is changed to change the duty cycle of the
  17:.\Servo_Driver.c ****  * PWM. The function will not exceed 2ms. The equations were found 
  18:.\Servo_Driver.c ****  * to map 0 - 180 from a compare value that = 1ms or 2ms. Using
  19:.\Servo_Driver.c ****  * The values as 3000 and 6000. The equations below came out.
  20:.\Servo_Driver.c ****  * This will have some fine tuning to get the right rotation due
  21:.\Servo_Driver.c ****  * to incorrect clocks. Move up and down the two points either
  22:.\Servo_Driver.c ****  * till the correct rotation is found. Every motor will be a bit 
  23:.\Servo_Driver.c ****  * different. The scales might be change to obtain better resolution. 
  24:.\Servo_Driver.c ****  */
  25:.\Servo_Driver.c **** void set_position(double position, struct Servo *s)
  26:.\Servo_Driver.c **** {
ARM GAS  C:\Users\Jorden\AppData\Local\Temp\ccljD20g.s 			page 2


  32              		.loc 1 26 0
  33              		.cfi_startproc
  34              		@ args = 0, pretend = 0, frame = 0
  35              		@ frame_needed = 0, uses_anonymous_args = 0
  36              	.LVL0:
  37 0000 F8B5     		push	{r3, r4, r5, r6, r7, lr}
  38              		.cfi_def_cfa_offset 24
  39              		.cfi_offset 3, -24
  40              		.cfi_offset 4, -20
  41              		.cfi_offset 5, -16
  42              		.cfi_offset 6, -12
  43              		.cfi_offset 7, -8
  44              		.cfi_offset 14, -4
  45 0002 0446     		mov	r4, r0
  46 0004 0D46     		mov	r5, r1
  47 0006 1646     		mov	r6, r2
  27:.\Servo_Driver.c ****     uint16 temp;
  28:.\Servo_Driver.c ****     if(s->max_rotational_degree >= (uint16) position)
  48              		.loc 1 28 0
  49 0008 1788     		ldrh	r7, [r2]
  50 000a FFF7FEFF 		bl	__aeabi_d2uiz
  51              	.LVL1:
  52 000e 80B2     		uxth	r0, r0
  53 0010 8742     		cmp	r7, r0
  54 0012 02D3     		bcc	.L2
  29:.\Servo_Driver.c ****     {
  30:.\Servo_Driver.c ****         s->position = position;
  55              		.loc 1 30 0
  56 0014 C6E90245 		strd	r4, [r6, #8]
  57 0018 04E0     		b	.L3
  58              	.L2:
  31:.\Servo_Driver.c ****     }
  32:.\Servo_Driver.c ****     else
  33:.\Servo_Driver.c ****     {
  34:.\Servo_Driver.c ****         s->position = (double) s->max_rotational_degree;
  59              		.loc 1 34 0
  60 001a 3846     		mov	r0, r7
  61 001c FFF7FEFF 		bl	__aeabi_ui2d
  62              	.LVL2:
  63 0020 C6E90201 		strd	r0, [r6, #8]
  64              	.L3:
  35:.\Servo_Driver.c ****     }
  36:.\Servo_Driver.c ****     switch(s->servo)
  65              		.loc 1 36 0
  66 0024 337C     		ldrb	r3, [r6, #16]	@ zero_extendqisi2
  67 0026 032B     		cmp	r3, #3
  68 0028 56D8     		bhi	.L1
  69 002a DFE803F0 		tbb	[pc, r3]
  70              	.L6:
  71 002e 02       		.byte	(.L5-.L6)/2
  72 002f 17       		.byte	(.L7-.L6)/2
  73 0030 2C       		.byte	(.L8-.L6)/2
  74 0031 41       		.byte	(.L9-.L6)/2
  75              		.p2align 1
  76              	.L5:
  37:.\Servo_Driver.c ****     {
  38:.\Servo_Driver.c ****         case SERVO_1A:
ARM GAS  C:\Users\Jorden\AppData\Local\Temp\ccljD20g.s 			page 3


  39:.\Servo_Driver.c ****         //gives better range for radio shack serov Cat no 2730766
  40:.\Servo_Driver.c ****             temp = (uint16)(((265*s->position)/9)+1800);
  77              		.loc 1 40 0
  78 0032 D6E90201 		ldrd	r0, [r6, #8]
  79 0036 2AA3     		adr	r3, .L10
  80 0038 D3E90023 		ldrd	r2, [r3]
  81 003c FFF7FEFF 		bl	__aeabi_dmul
  82              	.LVL3:
  83 0040 0022     		movs	r2, #0
  84 0042 2B4B     		ldr	r3, .L10+16
  85 0044 FFF7FEFF 		bl	__aeabi_ddiv
  86              	.LVL4:
  87 0048 0022     		movs	r2, #0
  88 004a 2A4B     		ldr	r3, .L10+20
  89 004c FFF7FEFF 		bl	__aeabi_dadd
  90              	.LVL5:
  91 0050 FFF7FEFF 		bl	__aeabi_d2uiz
  92              	.LVL6:
  41:.\Servo_Driver.c ****             Servo_A_WriteCompare1(temp);
  93              		.loc 1 41 0
  94 0054 80B2     		uxth	r0, r0
  95 0056 FFF7FEFF 		bl	Servo_A_WriteCompare1
  96              	.LVL7:
  42:.\Servo_Driver.c ****             break;
  97              		.loc 1 42 0
  98 005a F8BD     		pop	{r3, r4, r5, r6, r7, pc}
  99              	.LVL8:
 100              	.L7:
  43:.\Servo_Driver.c ****         case SERVO_1B:
  44:.\Servo_Driver.c ****             temp = (uint16)(((50*s->position)/3)+3000);
 101              		.loc 1 44 0
 102 005c D6E90201 		ldrd	r0, [r6, #8]
 103 0060 0022     		movs	r2, #0
 104 0062 254B     		ldr	r3, .L10+24
 105 0064 FFF7FEFF 		bl	__aeabi_dmul
 106              	.LVL9:
 107 0068 0022     		movs	r2, #0
 108 006a 244B     		ldr	r3, .L10+28
 109 006c FFF7FEFF 		bl	__aeabi_ddiv
 110              	.LVL10:
 111 0070 1DA3     		adr	r3, .L10+8
 112 0072 D3E90023 		ldrd	r2, [r3]
 113 0076 FFF7FEFF 		bl	__aeabi_dadd
 114              	.LVL11:
 115 007a FFF7FEFF 		bl	__aeabi_d2uiz
 116              	.LVL12:
  45:.\Servo_Driver.c ****             Servo_A_WriteCompare2(temp);
 117              		.loc 1 45 0
 118 007e 80B2     		uxth	r0, r0
 119 0080 FFF7FEFF 		bl	Servo_A_WriteCompare2
 120              	.LVL13:
  46:.\Servo_Driver.c ****             break;
 121              		.loc 1 46 0
 122 0084 F8BD     		pop	{r3, r4, r5, r6, r7, pc}
 123              	.LVL14:
 124              	.L8:
  47:.\Servo_Driver.c ****         case SERVO_2A:
ARM GAS  C:\Users\Jorden\AppData\Local\Temp\ccljD20g.s 			page 4


  48:.\Servo_Driver.c ****             temp = (uint16)(((50*s->position)/3)+3000);
 125              		.loc 1 48 0
 126 0086 D6E90201 		ldrd	r0, [r6, #8]
 127 008a 0022     		movs	r2, #0
 128 008c 1A4B     		ldr	r3, .L10+24
 129 008e FFF7FEFF 		bl	__aeabi_dmul
 130              	.LVL15:
 131 0092 0022     		movs	r2, #0
 132 0094 194B     		ldr	r3, .L10+28
 133 0096 FFF7FEFF 		bl	__aeabi_ddiv
 134              	.LVL16:
 135 009a 13A3     		adr	r3, .L10+8
 136 009c D3E90023 		ldrd	r2, [r3]
 137 00a0 FFF7FEFF 		bl	__aeabi_dadd
 138              	.LVL17:
 139 00a4 FFF7FEFF 		bl	__aeabi_d2uiz
 140              	.LVL18:
  49:.\Servo_Driver.c ****             Servo_B_WriteCompare1( temp);
 141              		.loc 1 49 0
 142 00a8 80B2     		uxth	r0, r0
 143 00aa FFF7FEFF 		bl	Servo_B_WriteCompare1
 144              	.LVL19:
  50:.\Servo_Driver.c ****             break;
 145              		.loc 1 50 0
 146 00ae F8BD     		pop	{r3, r4, r5, r6, r7, pc}
 147              	.LVL20:
 148              	.L9:
  51:.\Servo_Driver.c ****         case SERVO_2B:
  52:.\Servo_Driver.c ****             temp = (uint16)(((50*s->position)/3+3000));
 149              		.loc 1 52 0
 150 00b0 D6E90201 		ldrd	r0, [r6, #8]
 151 00b4 0022     		movs	r2, #0
 152 00b6 104B     		ldr	r3, .L10+24
 153 00b8 FFF7FEFF 		bl	__aeabi_dmul
 154              	.LVL21:
 155 00bc 0022     		movs	r2, #0
 156 00be 0F4B     		ldr	r3, .L10+28
 157 00c0 FFF7FEFF 		bl	__aeabi_ddiv
 158              	.LVL22:
 159 00c4 08A3     		adr	r3, .L10+8
 160 00c6 D3E90023 		ldrd	r2, [r3]
 161 00ca FFF7FEFF 		bl	__aeabi_dadd
 162              	.LVL23:
 163 00ce FFF7FEFF 		bl	__aeabi_d2uiz
 164              	.LVL24:
  53:.\Servo_Driver.c ****             Servo_B_WriteCompare2(temp);
 165              		.loc 1 53 0
 166 00d2 80B2     		uxth	r0, r0
 167 00d4 FFF7FEFF 		bl	Servo_B_WriteCompare2
 168              	.LVL25:
 169              	.L1:
 170 00d8 F8BD     		pop	{r3, r4, r5, r6, r7, pc}
 171              	.LVL26:
 172              	.L11:
 173 00da 00BFAFF3 		.align	3
 173      0080
 174              	.L10:
ARM GAS  C:\Users\Jorden\AppData\Local\Temp\ccljD20g.s 			page 5


 175 00e0 00000000 		.word	0
 176 00e4 00907040 		.word	1081118720
 177 00e8 00000000 		.word	0
 178 00ec 0070A740 		.word	1084715008
 179 00f0 00002240 		.word	1075970048
 180 00f4 00209C40 		.word	1083973632
 181 00f8 00004940 		.word	1078525952
 182 00fc 00000840 		.word	1074266112
 183              		.cfi_endproc
 184              	.LFE63:
 185              		.size	set_position, .-set_position
 186              		.section	.text.get_position,"ax",%progbits
 187              		.align	2
 188              		.global	get_position
 189              		.thumb
 190              		.thumb_func
 191              		.type	get_position, %function
 192              	get_position:
 193              	.LFB64:
  54:.\Servo_Driver.c ****             break;    
  55:.\Servo_Driver.c ****     }
  56:.\Servo_Driver.c **** }
  57:.\Servo_Driver.c **** uint16 get_position(struct Servo *s)
  58:.\Servo_Driver.c **** {
 194              		.loc 1 58 0
 195              		.cfi_startproc
 196              		@ args = 0, pretend = 0, frame = 0
 197              		@ frame_needed = 0, uses_anonymous_args = 0
 198              	.LVL27:
 199 0000 08B5     		push	{r3, lr}
 200              		.cfi_def_cfa_offset 8
 201              		.cfi_offset 3, -8
 202              		.cfi_offset 14, -4
  59:.\Servo_Driver.c ****     
  60:.\Servo_Driver.c ****     return s->position;   
 203              		.loc 1 60 0
 204 0002 00F10801 		add	r1, r0, #8
 205 0006 D1E90001 		ldrd	r0, [r1]
 206              	.LVL28:
 207 000a FFF7FEFF 		bl	__aeabi_d2uiz
 208              	.LVL29:
  61:.\Servo_Driver.c **** }
 209              		.loc 1 61 0
 210 000e 80B2     		uxth	r0, r0
 211 0010 08BD     		pop	{r3, pc}
 212              		.cfi_endproc
 213              	.LFE64:
 214              		.size	get_position, .-get_position
 215 0012 00BF     		.section	.text.set_max_rotational_degree,"ax",%progbits
 216              		.align	2
 217              		.global	set_max_rotational_degree
 218              		.thumb
 219              		.thumb_func
 220              		.type	set_max_rotational_degree, %function
 221              	set_max_rotational_degree:
 222              	.LFB65:
  62:.\Servo_Driver.c **** void set_max_rotational_degree(uint16 value, struct Servo *s)
ARM GAS  C:\Users\Jorden\AppData\Local\Temp\ccljD20g.s 			page 6


  63:.\Servo_Driver.c **** {
 223              		.loc 1 63 0
 224              		.cfi_startproc
 225              		@ args = 0, pretend = 0, frame = 0
 226              		@ frame_needed = 0, uses_anonymous_args = 0
 227              		@ link register save eliminated.
 228              	.LVL30:
  64:.\Servo_Driver.c ****     s->max_rotational_degree = value;
 229              		.loc 1 64 0
 230 0000 0880     		strh	r0, [r1]	@ movhi
 231 0002 7047     		bx	lr
 232              		.cfi_endproc
 233              	.LFE65:
 234              		.size	set_max_rotational_degree, .-set_max_rotational_degree
 235              		.section	.text.get_max_rotational_degree,"ax",%progbits
 236              		.align	2
 237              		.global	get_max_rotational_degree
 238              		.thumb
 239              		.thumb_func
 240              		.type	get_max_rotational_degree, %function
 241              	get_max_rotational_degree:
 242              	.LFB66:
  65:.\Servo_Driver.c **** }
  66:.\Servo_Driver.c **** uint16 get_max_rotational_degree(struct Servo *s)
  67:.\Servo_Driver.c **** {
 243              		.loc 1 67 0
 244              		.cfi_startproc
 245              		@ args = 0, pretend = 0, frame = 0
 246              		@ frame_needed = 0, uses_anonymous_args = 0
 247              		@ link register save eliminated.
 248              	.LVL31:
  68:.\Servo_Driver.c ****     return s->max_rotational_degree;   
  69:.\Servo_Driver.c **** }
 249              		.loc 1 69 0
 250 0000 0088     		ldrh	r0, [r0]
 251              	.LVL32:
 252 0002 7047     		bx	lr
 253              		.cfi_endproc
 254              	.LFE66:
 255              		.size	get_max_rotational_degree, .-get_max_rotational_degree
 256              		.text
 257              	.Letext0:
 258              		.file 2 "c:\\program files (x86)\\cypress\\psoc creator\\3.2\\psoc creator\\import\\gnu\\arm\\4.8.
 259              		.file 3 "c:\\program files (x86)\\cypress\\psoc creator\\3.2\\psoc creator\\import\\gnu\\arm\\4.8.
 260              		.file 4 "Generated_Source\\PSoC5/cytypes.h"
 261              		.file 5 ".\\Servo_Driver.h"
 262              		.file 6 "Generated_Source\\PSoC5/Servo_A.h"
 263              		.file 7 "Generated_Source\\PSoC5/Servo_B.h"
 264              		.file 8 "Generated_Source\\PSoC5/core_cm3.h"